                              1 ;--------------------------------------------------------
                              2 ; File Created by SDCC : FreeWare ANSI-C Compiler
                              3 ; Version 2.2.1 Tue Dec 02 13:43:48 2025
                              4 
                              5 ;--------------------------------------------------------
                              6 	.module lcc312760
                              7 	
                              8 ;--------------------------------------------------------
                              9 ; Public variables in this module
                             10 ;--------------------------------------------------------
                             11 	.globl _rand
                             12 	.globl _KillEnemy
                             13 	.globl _GetSprite
                             14 	.globl _move_sprite
                             15 	.globl _set_sprite_tile
                             16 	.globl _m_nSpawnDelay
                             17 	.globl _m_nSpawnTimer
                             18 	.globl _m_aoEnemies
                             19 	.globl _TickSpawnTimer
                             20 	.globl _SpawnNext
                             21 	.globl _IsEnemyAlive
                             22 	.globl _IncreaseDifficulty
                             23 	.globl _KillEnemy
                             24 	.globl _UpdateEnemy
                             25 	.globl _GetSprite
                             26 	.globl _SpawnEnemy
                             27 	.globl _InitEnemy
                             28 	.globl _GetNextSpawnIndex
                             29 	.globl _InitEnemiesSpawnQueue
                             30 ;--------------------------------------------------------
                             31 ; Externals used
                             32 ;--------------------------------------------------------
                             33 	.globl _IE_REG
                             34 	.globl _SVBK_REG
                             35 	.globl _OCPD_REG
                             36 	.globl _OCPS_REG
                             37 	.globl _BCPD_REG
                             38 	.globl _BCPS_REG
                             39 	.globl _RP_REG
                             40 	.globl _HDMA5_REG
                             41 	.globl _HDMA4_REG
                             42 	.globl _HDMA3_REG
                             43 	.globl _HDMA2_REG
                             44 	.globl _HDMA1_REG
                             45 	.globl _VBK_REG
                             46 	.globl _KEY1_REG
                             47 	.globl _WX_REG
                             48 	.globl _WY_REG
                             49 	.globl _OBP1_REG
                             50 	.globl _OBP0_REG
                             51 	.globl _BGP_REG
                             52 	.globl _DMA_REG
                             53 	.globl _LYC_REG
                             54 	.globl _LY_REG
                             55 	.globl _SCX_REG
                             56 	.globl _SCY_REG
                             57 	.globl _STAT_REG
                             58 	.globl _LCDC_REG
                             59 	.globl _NR52_REG
                             60 	.globl _NR51_REG
                             61 	.globl _NR50_REG
                             62 	.globl _NR44_REG
                             63 	.globl _NR43_REG
                             64 	.globl _NR42_REG
                             65 	.globl _NR41_REG
                             66 	.globl _NR34_REG
                             67 	.globl _NR33_REG
                             68 	.globl _NR32_REG
                             69 	.globl _NR31_REG
                             70 	.globl _NR30_REG
                             71 	.globl _NR24_REG
                             72 	.globl _NR23_REG
                             73 	.globl _NR22_REG
                             74 	.globl _NR21_REG
                             75 	.globl _NR14_REG
                             76 	.globl _NR13_REG
                             77 	.globl _NR12_REG
                             78 	.globl _NR11_REG
                             79 	.globl _NR10_REG
                             80 	.globl _IF_REG
                             81 	.globl _TAC_REG
                             82 	.globl _TMA_REG
                             83 	.globl _TIMA_REG
                             84 	.globl _DIV_REG
                             85 	.globl _SC_REG
                             86 	.globl _SB_REG
                             87 	.globl _P1_REG
                             88 	.globl _m_bPlayKillSoundEffect
                             89 	.globl _m_nSpawnDelay
                             90 	.globl _m_nSpawnTimer
                             91 	.globl __io_out
                             92 	.globl __io_in
                             93 	.globl __io_status
                             94 	.globl _sys_time
                             95 	.globl __cpu
                             96 ;--------------------------------------------------------
                             97 ; special function registers
                             98 ;--------------------------------------------------------
                             99 ;--------------------------------------------------------
                            100 ; special function bits 
                            101 ;--------------------------------------------------------
                            102 ;--------------------------------------------------------
                            103 ; internal ram data
                            104 ;--------------------------------------------------------
                            105 	.area _DATA
   0000                     106 _m_aoEnemies::
   0000                     107 	.ds 208
   00D0                     108 _m_nNextSpriteID:
   00D0                     109 	.ds 1
   00D1                     110 _m_anSpawnQueue:
   00D1                     111 	.ds 64
   0111                     112 _m_nSpawnQueuePos:
   0111                     113 	.ds 1
   0112                     114 _m_nCurrentSpeed:
   0112                     115 	.ds 1
   0113                     116 _m_nTotalKilled:
   0113                     117 	.ds 2
   0115                     118 _m_nKillsForNextSpeed:
   0115                     119 	.ds 1
   0116                     120 _m_bMaxSpeedReached:
   0116                     121 	.ds 1
   0117                     122 _m_bMaxSpawnRateReached:
   0117                     123 	.ds 1
   0118                     124 _m_nLastSpawnRateKillCount:
   0118                     125 	.ds 2
   011A                     126 _m_nSpawnTimer::
   011A                     127 	.ds 1
   011B                     128 _m_nSpawnDelay::
   011B                     129 	.ds 1
   011C                     130 _m_bPlayKillSoundEffect::
   011C                     131 	.ds 1
   011D                     132 _InitEnemiesSpawnQueue_sloc3_1_0:
   011D                     133 	.ds 2
   011F                     134 _InitEnemiesSpawnQueue_sloc4_1_0:
   011F                     135 	.ds 1
   0120                     136 _InitEnemiesSpawnQueue_sloc5_1_0:
   0120                     137 	.ds 2
   0122                     138 _SpawnEnemy_sloc0_1_0:
   0122                     139 	.ds 1
   0123                     140 _SpawnEnemy_sloc1_1_0:
   0123                     141 	.ds 2
                            142 ;--------------------------------------------------------
                            143 ; overlayable items in internal ram 
                            144 ;--------------------------------------------------------
                            145 	.area _OVERLAY
                            146 ;--------------------------------------------------------
                            147 ; indirectly addressable internal ram data
                            148 ;--------------------------------------------------------
                            149 	.area _ISEG
                            150 ;--------------------------------------------------------
                            151 ; bit data
                            152 ;--------------------------------------------------------
                            153 	.area _BSEG
                            154 ;--------------------------------------------------------
                            155 ; external ram data
                            156 ;--------------------------------------------------------
                            157 	.area _XSEG
                            158 ;--------------------------------------------------------
                            159 ; global & static initialisations
                            160 ;--------------------------------------------------------
                            161 	.area _GSINIT
                            162 	.area _GSFINAL
                            163 	.area _GSINIT
                            164 ;	enemies.c 528
                            165 ; genAssign
                            166 ; AOP_HL for _m_nNextSpriteID
   0000 21 D0 00            167 	ld	hl,#_m_nNextSpriteID + 0
   0003 36 07               168 	ld	(hl),#0x07
                            169 ;	enemies.c 528
                            170 ; genAssign
                            171 ; AOP_HL for _m_nSpawnQueuePos
   0005 21 11 01            172 	ld	hl,#_m_nSpawnQueuePos + 0
   0008 36 00               173 	ld	(hl),#0x00
                            174 ;	enemies.c 528
                            175 ; genAssign
                            176 ; AOP_HL for _m_nCurrentSpeed
   000A 21 12 01            177 	ld	hl,#_m_nCurrentSpeed + 0
   000D 36 01               178 	ld	(hl),#0x01
                            179 ;	enemies.c 528
                            180 ; genAssign
                            181 ; AOP_HL for _m_nTotalKilled
   000F 21 13 01            182 	ld	hl,#_m_nTotalKilled + 0
   0012 36 00               183 	ld	(hl),#0x00
   0014 23                  184 	inc	hl
   0015 36 00               185 	ld	(hl),#0x00
                            186 ;	enemies.c 528
                            187 ; genAssign
                            188 ; AOP_HL for _m_nKillsForNextSpeed
   0017 21 15 01            189 	ld	hl,#_m_nKillsForNextSpeed + 0
   001A 36 0F               190 	ld	(hl),#0x0F
                            191 ;	enemies.c 528
                            192 ; genAssign
                            193 ; AOP_HL for _m_bMaxSpeedReached
   001C 21 16 01            194 	ld	hl,#_m_bMaxSpeedReached + 0
   001F 36 00               195 	ld	(hl),#0x00
                            196 ;	enemies.c 528
                            197 ; genAssign
                            198 ; AOP_HL for _m_bMaxSpawnRateReached
   0021 21 17 01            199 	ld	hl,#_m_bMaxSpawnRateReached + 0
   0024 36 00               200 	ld	(hl),#0x00
                            201 ;	enemies.c 528
                            202 ; genAssign
                            203 ; AOP_HL for _m_nLastSpawnRateKillCount
   0026 21 18 01            204 	ld	hl,#_m_nLastSpawnRateKillCount + 0
   0029 36 00               205 	ld	(hl),#0x00
   002B 23                  206 	inc	hl
   002C 36 00               207 	ld	(hl),#0x00
                            208 ;	enemies.c 528
                            209 ; genAssign
                            210 ; AOP_HL for _m_nSpawnTimer
   002E 21 1A 01            211 	ld	hl,#_m_nSpawnTimer + 0
   0031 36 00               212 	ld	(hl),#0x00
                            213 ;	enemies.c 528
                            214 ; genAssign
                            215 ; AOP_HL for _m_nSpawnDelay
   0033 21 1B 01            216 	ld	hl,#_m_nSpawnDelay + 0
   0036 36 64               217 	ld	(hl),#0x64
                            218 ;	enemies.c 528
                            219 ; genAssign
                            220 ; AOP_HL for _m_bPlayKillSoundEffect
   0038 21 1C 01            221 	ld	hl,#_m_bPlayKillSoundEffect + 0
   003B 36 00               222 	ld	(hl),#0x00
                            223 ;--------------------------------------------------------
                            224 ; Home
                            225 ;--------------------------------------------------------
                            226 	.area _HOME
                            227 	.area _CODE
                            228 ;--------------------------------------------------------
                            229 ; code
                            230 ;--------------------------------------------------------
                            231 	.area _CODE
                            232 ;	enemies.c 81
                            233 ; genLabel
                            234 ; genFunction
                            235 ;	---------------------------------
                            236 ; Function InitEnemiesSpawnQueue
                            237 ; ---------------------------------
   0000                     238 ___InitEnemiesSpawnQueue_start:
   0000                     239 _InitEnemiesSpawnQueue:
   0000 C5                  240 	push	bc
   0001 E8 F5               241 	lda	sp,-11(sp)
                            242 ;	enemies.c 89
                            243 ; genAssign
                            244 ; AOP_STK for _InitEnemiesSpawnQueue_nIndex_1_1
   0003 F8 06               245 	lda	hl,6(sp)
   0005 36 00               246 	ld	(hl),#0x00
                            247 ;	enemies.c 91
                            248 ; genAssign
                            249 ; AOP_STK for _InitEnemiesSpawnQueue_bValidShuffle_1_1
   0007 2B                  250 	dec	hl
   0008 2B                  251 	dec	hl
   0009 36 00               252 	ld	(hl),#0x00
                            253 ;	enemies.c 95
                            254 ; genAssign
                            255 ; AOP_STK for _InitEnemiesSpawnQueue_o_1_1
   000B F8 08               256 	lda	hl,8(sp)
   000D 36 00               257 	ld	(hl),#0x00
                            258 ; genLabel
   000F                     259 00117$:
                            260 ; genCmpLt
                            261 ; AOP_STK for _InitEnemiesSpawnQueue_o_1_1
   000F F8 08               262 	lda	hl,8(sp)
   0011 7E                  263 	ld	a,(hl)
   0012 FE 08               264 	cp	#0x08
   0014 D2 56 00            265 	jp	nc,00110$
                            266 ;	enemies.c 97
                            267 ; genAssign
                            268 ; AOP_STK for _InitEnemiesSpawnQueue_k_1_1
   0017 2B                  269 	dec	hl
   0018 36 00               270 	ld	(hl),#0x00
                            271 ; genLabel
   001A                     272 00113$:
                            273 ; genCmpLt
                            274 ; AOP_STK for _InitEnemiesSpawnQueue_k_1_1
   001A F8 07               275 	lda	hl,7(sp)
   001C 7E                  276 	ld	a,(hl)
   001D FE 08               277 	cp	#0x08
   001F 3E 00               278 	ld	a,#0x00
   0021 17                  279 	rla
   0022 4F                  280 	ld	c,a
                            281 ; genIfx
                            282 ; Removed redundent or a,a
   0023 AF                  283 	xor	a,a
   0024 B1                  284 	or	a,c
   0025 CA 50 00            285 	jp	z,00119$
                            286 ;	enemies.c 99
                            287 ; genAssign
                            288 ; AOP_STK for _InitEnemiesSpawnQueue_nIndex_1_1
                            289 ; AOP_STK for _InitEnemiesSpawnQueue_sloc0_1_0
   0028 2B                  290 	dec	hl
   0029 7E                  291 	ld	a,(hl)
   002A F8 02               292 	lda	hl,2(sp)
   002C 77                  293 	ld	(hl),a
                            294 ; genPlus
                            295 ; AOP_STK for _InitEnemiesSpawnQueue_nIndex_1_1
                            296 ; AOP_STK for _InitEnemiesSpawnQueue_sloc1_1_0
                            297 ; genPlusIncr
                            298 ;	genPlusIncr failed
   002D F8 06               299 	lda	hl,6(sp)
   002F 7E                  300 	ld	a,(hl)
   0030 C6 01               301 	add	a,#0x01
   0032 F8 01               302 	lda	hl,1(sp)
   0034 77                  303 	ld	(hl),a
                            304 ; genAssign
                            305 ; AOP_STK for _InitEnemiesSpawnQueue_sloc1_1_0
                            306 ; AOP_STK for _InitEnemiesSpawnQueue_nIndex_1_1
   0035 7E                  307 	ld	a,(hl)
   0036 F8 06               308 	lda	hl,6(sp)
   0038 77                  309 	ld	(hl),a
                            310 ; genPlus
                            311 ; AOP_STK for _InitEnemiesSpawnQueue_sloc0_1_0
                            312 ;	genPlusIncr failed
   0039 11 D1 00            313 	ld	de,#_m_anSpawnQueue + 0
   003C F8 02               314 	lda	hl,2(sp)
   003E 6E                  315 	ld	l,(hl)
   003F 26 00               316 	ld	h,#0x00
   0041 19                  317 	add	hl,de
   0042 5D                  318 	ld	e,l
   0043 54                  319 	ld	d,h
                            320 ; genAssign (pointer)
                            321 ; AOP_STK for _InitEnemiesSpawnQueue_k_1_1
   0044 F8 07               322 	lda	hl,7(sp)
   0046 7E                  323 	ld	a,(hl)
   0047 12                  324 	ld	(de),a
                            325 ;	enemies.c 97
                            326 ; genPlus
                            327 ; AOP_STK for _InitEnemiesSpawnQueue_k_1_1
                            328 ; genPlusIncr
                            329 ;	genPlusIncr failed
   0048 7E                  330 	ld	a,(hl)
   0049 C6 01               331 	add	a,#0x01
   004B 47                  332 	ld	b,a
                            333 ; genAssign
                            334 ; AOP_STK for _InitEnemiesSpawnQueue_k_1_1
   004C 70                  335 	ld	(hl),b
                            336 ; genGoto
   004D C3 1A 00            337 	jp	00113$
                            338 ; genLabel
   0050                     339 00119$:
                            340 ;	enemies.c 95
                            341 ; genPlus
                            342 ; AOP_STK for _InitEnemiesSpawnQueue_o_1_1
                            343 ; genPlusIncr
   0050 F8 08               344 	lda	hl,8(sp)
   0052 34                  345 	inc	(hl)
                            346 ; genGoto
   0053 C3 0F 00            347 	jp	00117$
                            348 ;	enemies.c 105
                            349 ; genLabel
   0056                     350 00110$:
                            351 ; genIfx
                            352 ; AOP_STK for _InitEnemiesSpawnQueue_bValidShuffle_1_1
   0056 AF                  353 	xor	a,a
   0057 F8 04               354 	lda	hl,4(sp)
   0059 B6                  355 	or	a,(hl)
   005A B7                  356 	or	a,a
   005B C2 2F 01            357 	jp	nz,00112$
                            358 ;	enemies.c 108
                            359 ; genAssign
                            360 ; AOP_STK for _InitEnemiesSpawnQueue_i_1_1
   005E F8 0A               361 	lda	hl,10(sp)
   0060 36 3F               362 	ld	(hl),#0x3F
                            363 ; genLabel
   0062                     364 00121$:
                            365 ; genCmpGt
                            366 ; AOP_STK for _InitEnemiesSpawnQueue_i_1_1
                            367 ; AOP_STK for _InitEnemiesSpawnQueue_sloc2_1_0
   0062 AF                  368 	xor	a,a
   0063 3E 00               369 	ld	a,#0x00
   0065 F8 0A               370 	lda	hl,10(sp)
   0067 9E                  371 	sbc	a,(hl) ; 2
   0068 3E 00               372 	ld	a,#0x00
   006A 17                  373 	rla
   006B F8 00               374 	lda	hl,0(sp)
   006D 77                  375 	ld	(hl),a
                            376 ; genIfx
                            377 ; AOP_STK for _InitEnemiesSpawnQueue_sloc2_1_0
                            378 ; Removed redundent or a,a
   006E AF                  379 	xor	a,a
   006F B6                  380 	or	a,(hl)
   0070 CA DF 00            381 	jp	z,00124$
                            382 ;	enemies.c 110
                            383 ; genCall
   0073 CD 00 00            384 	call	_rand
                            385 ; AOP_STK for _InitEnemiesSpawnQueue_sloc1_1_0
   0076 F8 01               386 	lda	hl,1(sp)
   0078 73                  387 	ld	(hl),e
                            388 ; genPlus
                            389 ; AOP_STK for _InitEnemiesSpawnQueue_i_1_1
                            390 ; AOP_STK for _InitEnemiesSpawnQueue_sloc0_1_0
                            391 ; genPlusIncr
                            392 ;	genPlusIncr failed
   0079 F8 0A               393 	lda	hl,10(sp)
   007B 7E                  394 	ld	a,(hl)
   007C C6 01               395 	add	a,#0x01
   007E F8 02               396 	lda	hl,2(sp)
   0080 77                  397 	ld	(hl),a
                            398 ; genIpush
                            399 ; AOP_STK for _InitEnemiesSpawnQueue_sloc0_1_0
   0081 7E                  400 	ld	a,(hl)
   0082 F5                  401 	push	af
   0083 33                  402 	inc	sp
                            403 ; genIpush
                            404 ; AOP_STK for _InitEnemiesSpawnQueue_sloc1_1_0
   0084 2B                  405 	dec	hl
   0085 7E                  406 	ld	a,(hl)
   0086 F5                  407 	push	af
   0087 33                  408 	inc	sp
                            409 ; genCall
   0088 CD 00 00            410 	call	__modschar
                            411 ; AOP_STK for _InitEnemiesSpawnQueue_j_1_1
   008B F8 0B               412 	lda	hl,11(sp)
   008D 73                  413 	ld	(hl),e
   008E E8 02               414 	lda	sp,2(sp)
                            415 ; genAssign
                            416 ; AOP_STK for _InitEnemiesSpawnQueue_j_1_1
                            417 ; (registers are the same)
                            418 ;	enemies.c 111
                            419 ; genPlus
                            420 ; AOP_STK for _InitEnemiesSpawnQueue_i_1_1
                            421 ; AOP_HL for _InitEnemiesSpawnQueue_sloc3_1_0
                            422 ;	genPlusIncr failed
   0090 11 D1 00            423 	ld	de,#_m_anSpawnQueue + 0
   0093 23                  424 	inc	hl
   0094 6E                  425 	ld	l,(hl)
   0095 26 00               426 	ld	h,#0x00
   0097 19                  427 	add	hl,de
   0098 7D                  428 	ld	a,l
   0099 54                  429 	ld	d,h
   009A 21 1D 01            430 	ld	hl,#_InitEnemiesSpawnQueue_sloc3_1_0 + 0
   009D 22                  431 	ld	(hl+),a
   009E 72                  432 	ld	(hl),d
                            433 ; genPointerGet
                            434 ; AOP_HL for _InitEnemiesSpawnQueue_sloc3_1_0
                            435 ; AOP_STK for _InitEnemiesSpawnQueue_nTemp_1_1
   009F 2B                  436 	dec	hl
   00A0 5E                  437 	ld	e,(hl)
   00A1 23                  438 	inc	hl
   00A2 56                  439 	ld	d,(hl)
   00A3 1A                  440 	ld	a,(de)
   00A4 F8 05               441 	lda	hl,5(sp)
   00A6 77                  442 	ld	(hl),a
                            443 ; genAssign
                            444 ; AOP_STK for _InitEnemiesSpawnQueue_nTemp_1_1
                            445 ; (registers are the same)
                            446 ;	enemies.c 112
                            447 ; genPlus
                            448 ; AOP_STK for _InitEnemiesSpawnQueue_j_1_1
                            449 ; AOP_HL for _InitEnemiesSpawnQueue_sloc5_1_0
                            450 ;	genPlusIncr failed
   00A7 11 D1 00            451 	ld	de,#_m_anSpawnQueue + 0
   00AA F8 09               452 	lda	hl,9(sp)
   00AC 6E                  453 	ld	l,(hl)
   00AD 26 00               454 	ld	h,#0x00
   00AF 19                  455 	add	hl,de
   00B0 7D                  456 	ld	a,l
   00B1 54                  457 	ld	d,h
   00B2 21 20 01            458 	ld	hl,#_InitEnemiesSpawnQueue_sloc5_1_0 + 0
   00B5 22                  459 	ld	(hl+),a
   00B6 72                  460 	ld	(hl),d
                            461 ; genPointerGet
                            462 ; AOP_HL for _InitEnemiesSpawnQueue_sloc5_1_0
                            463 ; AOP_HL for _InitEnemiesSpawnQueue_sloc4_1_0
   00B7 2B                  464 	dec	hl
   00B8 5E                  465 	ld	e,(hl)
   00B9 23                  466 	inc	hl
   00BA 56                  467 	ld	d,(hl)
   00BB 1A                  468 	ld	a,(de)
   00BC 21 1F 01            469 	ld	hl,#_InitEnemiesSpawnQueue_sloc4_1_0 + 0
   00BF 77                  470 	ld	(hl),a
                            471 ; genAssign (pointer)
                            472 ; AOP_HL for _InitEnemiesSpawnQueue_sloc3_1_0
                            473 ; AOP_HL for _InitEnemiesSpawnQueue_sloc4_1_0
   00C0 21 1D 01            474 	ld	hl,#_InitEnemiesSpawnQueue_sloc3_1_0 + 0
   00C3 5E                  475 	ld	e,(hl)
   00C4 23                  476 	inc	hl
   00C5 56                  477 	ld	d,(hl)
   00C6 21 1F 01            478 	ld	hl,#_InitEnemiesSpawnQueue_sloc4_1_0 + 0
   00C9 7E                  479 	ld	a,(hl)
   00CA 12                  480 	ld	(de),a
                            481 ;	enemies.c 113
                            482 ; genAssign (pointer)
                            483 ; AOP_HL for _InitEnemiesSpawnQueue_sloc5_1_0
                            484 ; AOP_STK for _InitEnemiesSpawnQueue_nTemp_1_1
   00CB 21 20 01            485 	ld	hl,#_InitEnemiesSpawnQueue_sloc5_1_0 + 0
   00CE 5E                  486 	ld	e,(hl)
   00CF 23                  487 	inc	hl
   00D0 56                  488 	ld	d,(hl)
   00D1 F8 05               489 	lda	hl,5(sp)
   00D3 7E                  490 	ld	a,(hl)
   00D4 12                  491 	ld	(de),a
                            492 ;	enemies.c 108
                            493 ; genMinus
                            494 ; AOP_STK for _InitEnemiesSpawnQueue_i_1_1
   00D5 F8 0A               495 	lda	hl,10(sp)
   00D7 7E                  496 	ld	a,(hl)
   00D8 C6 FF               497 	add	a,#0xFF
   00DA 4F                  498 	ld	c,a
                            499 ; genAssign
                            500 ; AOP_STK for _InitEnemiesSpawnQueue_i_1_1
   00DB 71                  501 	ld	(hl),c
                            502 ; genGoto
   00DC C3 62 00            503 	jp	00121$
                            504 ; genLabel
   00DF                     505 00124$:
                            506 ;	enemies.c 118
                            507 ; genAssign
                            508 ; AOP_STK for _InitEnemiesSpawnQueue_bValidShuffle_1_1
   00DF F8 04               509 	lda	hl,4(sp)
   00E1 36 01               510 	ld	(hl),#0x01
                            511 ;	enemies.c 119
                            512 ; genAssign
                            513 ; AOP_STK for _InitEnemiesSpawnQueue_nStreak_1_1
   00E3 2B                  514 	dec	hl
   00E4 36 01               515 	ld	(hl),#0x01
                            516 ;	enemies.c 124
                            517 ; genAssign
                            518 ; AOP_STK for _InitEnemiesSpawnQueue_i_1_1
   00E6 F8 0A               519 	lda	hl,10(sp)
   00E8 36 01               520 	ld	(hl),#0x01
                            521 ; genLabel
   00EA                     522 00106$:
                            523 ; genCmpLt
                            524 ; AOP_STK for _InitEnemiesSpawnQueue_i_1_1
   00EA F8 0A               525 	lda	hl,10(sp)
   00EC 7E                  526 	ld	a,(hl)
   00ED FE 40               527 	cp	#0x40
   00EF D2 56 00            528 	jp	nc,00110$
                            529 ;	enemies.c 127
                            530 ; genPlus
                            531 ; AOP_STK for _InitEnemiesSpawnQueue_i_1_1
                            532 ;	genPlusIncr failed
   00F2 11 D1 00            533 	ld	de,#_m_anSpawnQueue + 0
   00F5 6E                  534 	ld	l,(hl)
   00F6 26 00               535 	ld	h,#0x00
   00F8 19                  536 	add	hl,de
   00F9 5D                  537 	ld	e,l
   00FA 54                  538 	ld	d,h
                            539 ; genPointerGet
   00FB 1A                  540 	ld	a,(de)
   00FC 47                  541 	ld	b,a
                            542 ; genMinus
                            543 ; AOP_STK for _InitEnemiesSpawnQueue_i_1_1
   00FD F8 0A               544 	lda	hl,10(sp)
   00FF 7E                  545 	ld	a,(hl)
   0100 C6 FF               546 	add	a,#0xFF
   0102 4F                  547 	ld	c,a
                            548 ; genPlus
                            549 ;	genPlusIncr failed
   0103 3E D1               550 	ld	a,#<_m_anSpawnQueue
   0105 81                  551 	add	a,c
   0106 5F                  552 	ld	e,a
   0107 3E 00               553 	ld	a,#>_m_anSpawnQueue
   0109 CE 00               554 	adc	a,#0x00
   010B 57                  555 	ld	d,a
                            556 ; genPointerGet
   010C 1A                  557 	ld	a,(de)
                            558 ; genCmpEq
   010D B8                  559 	cp	b ; 5
   010E 20 02               560 	jr	nz,00139$
   0110 18 03               561 	jr	00140$
   0112                     562 00139$:
   0112 C3 25 01            563 	jp	00104$
   0115                     564 00140$:
                            565 ;	enemies.c 130
                            566 ; genPlus
                            567 ; AOP_STK for _InitEnemiesSpawnQueue_nStreak_1_1
                            568 ; genPlusIncr
   0115 F8 03               569 	lda	hl,3(sp)
   0117 34                  570 	inc	(hl)
                            571 ;	enemies.c 133
                            572 ; genCmpGt
                            573 ; AOP_STK for _InitEnemiesSpawnQueue_nStreak_1_1
   0118 AF                  574 	xor	a,a
   0119 3E 03               575 	ld	a,#0x03
   011B 9E                  576 	sbc	a,(hl) ; 2
   011C D2 29 01            577 	jp	nc,00108$
                            578 ;	enemies.c 137
                            579 ; genAssign
                            580 ; AOP_STK for _InitEnemiesSpawnQueue_bValidShuffle_1_1
   011F 23                  581 	inc	hl
   0120 36 00               582 	ld	(hl),#0x00
                            583 ;	enemies.c 138
                            584 ; genGoto
   0122 C3 56 00            585 	jp	00110$
                            586 ; genLabel
   0125                     587 00104$:
                            588 ;	enemies.c 145
                            589 ; genAssign
                            590 ; AOP_STK for _InitEnemiesSpawnQueue_nStreak_1_1
   0125 F8 03               591 	lda	hl,3(sp)
   0127 36 01               592 	ld	(hl),#0x01
                            593 ; genLabel
   0129                     594 00108$:
                            595 ;	enemies.c 124
                            596 ; genPlus
                            597 ; AOP_STK for _InitEnemiesSpawnQueue_i_1_1
                            598 ; genPlusIncr
   0129 F8 0A               599 	lda	hl,10(sp)
   012B 34                  600 	inc	(hl)
                            601 ; genGoto
   012C C3 EA 00            602 	jp	00106$
                            603 ; genLabel
   012F                     604 00112$:
                            605 ;	enemies.c 151
                            606 ; genAssign
                            607 ; AOP_HL for _m_nSpawnQueuePos
   012F 21 11 01            608 	ld	hl,#_m_nSpawnQueuePos + 0
   0132 36 00               609 	ld	(hl),#0x00
                            610 ; genLabel
   0134                     611 00125$:
                            612 ; genEndFunction
   0134 E8 0B               613 	lda	sp,11(sp)
   0136 C1                  614 	pop	bc
   0137 C9                  615 	ret
   0138                     616 ___InitEnemiesSpawnQueue_end:
   0138                     617 _m_anSpawnPositions:
   0138 27                  618 	.db #0x27
   0139 2B                  619 	.db #0x2B
   013A 50                  620 	.db #0x50
   013B 29                  621 	.db #0x29
   013C 82                  622 	.db #0x82
   013D 21                  623 	.db #0x21
   013E 0E                  624 	.db #0x0E
   013F 52                  625 	.db #0x52
   0140 9A                  626 	.db #0x9A
   0141 52                  627 	.db #0x52
   0142 06                  628 	.db #0x06
   0143 9A                  629 	.db #0x9A
   0144 50                  630 	.db #0x50
   0145 9A                  631 	.db #0x9A
   0146 9C                  632 	.db #0x9C
   0147 9C                  633 	.db #0x9C
   0148                     634 _m_anMovementDirX:
   0148 01                  635 	.db #0x01
   0149 00                  636 	.db #0x00
   014A FF                  637 	.db #0xFF
   014B 01                  638 	.db #0x01
   014C FF                  639 	.db #0xFF
   014D 01                  640 	.db #0x01
   014E 00                  641 	.db #0x00
   014F FF                  642 	.db #0xFF
   0150                     643 _m_anMovementDirY:
   0150 01                  644 	.db #0x01
   0151 01                  645 	.db #0x01
   0152 01                  646 	.db #0x01
   0153 00                  647 	.db #0x00
   0154 00                  648 	.db #0x00
   0155 FF                  649 	.db #0xFF
   0156 FF                  650 	.db #0xFF
   0157 FF                  651 	.db #0xFF
                            652 ;	enemies.c 160
                            653 ; genLabel
                            654 ; genFunction
                            655 ;	---------------------------------
                            656 ; Function GetNextSpawnIndex
                            657 ; ---------------------------------
   0158                     658 ___GetNextSpawnIndex_start:
   0158                     659 _GetNextSpawnIndex:
   0158 C5                  660 	push	bc
                            661 	
                            662 ;	enemies.c 163
                            663 ; genAssign
                            664 ; AOP_HL for _m_nSpawnQueuePos
   0159 21 11 01            665 	ld	hl,#_m_nSpawnQueuePos + 0
   015C 4E                  666 	ld	c,(hl)
                            667 ; genPlus
                            668 ;	genPlusIncr failed
   015D 3E D1               669 	ld	a,#<_m_anSpawnQueue
   015F 81                  670 	add	a,c
   0160 5F                  671 	ld	e,a
   0161 3E 00               672 	ld	a,#>_m_anSpawnQueue
   0163 CE 00               673 	adc	a,#0x00
   0165 57                  674 	ld	d,a
                            675 ; genPointerGet
   0166 1A                  676 	ld	a,(de)
   0167 4F                  677 	ld	c,a
                            678 ;	enemies.c 164
                            679 ; genPlus
                            680 ; AOP_HL for _m_nSpawnQueuePos
                            681 ; genPlusIncr
                            682 ;	genPlusIncr failed
   0168 7E                  683 	ld	a,(hl)
   0169 C6 01               684 	add	a,#0x01
   016B 47                  685 	ld	b,a
                            686 ; genIpush
   016C 3E 40               687 	ld	a,#0x40
   016E F5                  688 	push	af
   016F 33                  689 	inc	sp
                            690 ; genIpush
   0170 78                  691 	ld	a,b
   0171 F5                  692 	push	af
   0172 33                  693 	inc	sp
                            694 ; genCall
   0173 CD 00 00            695 	call	__moduchar
                            696 ; AOP_HL for _m_nSpawnQueuePos
   0176 21 11 01            697 	ld	hl,#_m_nSpawnQueuePos + 0
   0179 73                  698 	ld	(hl),e
   017A E8 02               699 	lda	sp,2(sp)
                            700 ;	enemies.c 165
                            701 ; genRet
   017C 59                  702 	ld	e,c
                            703 ; genLabel
   017D                     704 00101$:
                            705 ; genEndFunction
                            706 	
   017D C1                  707 	pop	bc
   017E C9                  708 	ret
   017F                     709 ___GetNextSpawnIndex_end:
                            710 ;	enemies.c 174
                            711 ; genLabel
                            712 ; genFunction
                            713 ;	---------------------------------
                            714 ; Function InitEnemy
                            715 ; ---------------------------------
   017F                     716 ___InitEnemy_start:
   017F                     717 _InitEnemy:
   017F C5                  718 	push	bc
                            719 	
                            720 ;	enemies.c 177
                            721 ; genIpush
   0180 3E 0D               722 	ld	a,#0x0D
   0182 F5                  723 	push	af
   0183 33                  724 	inc	sp
                            725 ; genIpush
                            726 ; AOP_STK for 
   0184 F8 05               727 	lda	hl,5(sp)
   0186 7E                  728 	ld	a,(hl)
   0187 F5                  729 	push	af
   0188 33                  730 	inc	sp
                            731 ; genCall
   0189 CD 00 00            732 	call	__muluchar
   018C 4B                  733 	ld	c,e
   018D E8 02               734 	lda	sp,2(sp)
                            735 ; genPlus
                            736 ;	genPlusIncr failed
   018F 3E 00               737 	ld	a,#<_m_aoEnemies
   0191 81                  738 	add	a,c
   0192 4F                  739 	ld	c,a
   0193 3E 00               740 	ld	a,#>_m_aoEnemies
   0195 CE 00               741 	adc	a,#0x00
   0197 47                  742 	ld	b,a
                            743 ; genPlus
                            744 ; genPlusIncr
                            745 ;	genPlusIncr failed
   0198 79                  746 	ld	a,c
   0199 C6 03               747 	add	a,#0x03
   019B 5F                  748 	ld	e,a
   019C 78                  749 	ld	a,b
   019D CE 00               750 	adc	a,#0x00
   019F 57                  751 	ld	d,a
                            752 ; genAssign (pointer)
   01A0 3E 00               753 	ld	a,#0x00
   01A2 12                  754 	ld	(de),a
                            755 ;	enemies.c 178
                            756 ; genPlus
                            757 ; genPlusIncr
                            758 ;	genPlusIncr failed
   01A3 79                  759 	ld	a,c
   01A4 C6 06               760 	add	a,#0x06
   01A6 5F                  761 	ld	e,a
   01A7 78                  762 	ld	a,b
   01A8 CE 00               763 	adc	a,#0x00
   01AA 57                  764 	ld	d,a
                            765 ; genAssign (pointer)
   01AB 3E 00               766 	ld	a,#0x00
   01AD 12                  767 	ld	(de),a
                            768 ;	enemies.c 179
                            769 ; genPlus
                            770 ; genPlusIncr
                            771 ;	genPlusIncr failed
   01AE 79                  772 	ld	a,c
   01AF C6 0C               773 	add	a,#0x0C
   01B1 5F                  774 	ld	e,a
   01B2 78                  775 	ld	a,b
   01B3 CE 00               776 	adc	a,#0x00
   01B5 57                  777 	ld	d,a
                            778 ; genAssign (pointer)
   01B6 3E 00               779 	ld	a,#0x00
   01B8 12                  780 	ld	(de),a
                            781 ;	enemies.c 180
                            782 ; genPlus
                            783 ; genPlusIncr
   01B9 59                  784 	ld	e,c
   01BA 50                  785 	ld	d,b
   01BB 13                  786 	inc	de
   01BC 13                  787 	inc	de
                            788 ; genAssign (pointer)
   01BD 3E 00               789 	ld	a,#0x00
   01BF 12                  790 	ld	(de),a
                            791 ;	enemies.c 181
                            792 ; genPlus
                            793 ; genPlusIncr
                            794 ;	genPlusIncr failed
   01C0 79                  795 	ld	a,c
   01C1 C6 07               796 	add	a,#0x07
   01C3 5F                  797 	ld	e,a
   01C4 78                  798 	ld	a,b
   01C5 CE 00               799 	adc	a,#0x00
   01C7 57                  800 	ld	d,a
                            801 ; genAssign (pointer)
                            802 ; AOP_HL for _m_nCurrentSpeed
   01C8 21 12 01            803 	ld	hl,#_m_nCurrentSpeed + 0
   01CB 7E                  804 	ld	a,(hl)
   01CC 12                  805 	ld	(de),a
                            806 ;	enemies.c 182
                            807 ; genPlus
                            808 ; genPlusIncr
                            809 ;	genPlusIncr failed
   01CD 79                  810 	ld	a,c
   01CE C6 09               811 	add	a,#0x09
   01D0 5F                  812 	ld	e,a
   01D1 78                  813 	ld	a,b
   01D2 CE 00               814 	adc	a,#0x00
   01D4 57                  815 	ld	d,a
                            816 ; genAssign (pointer)
   01D5 3E 00               817 	ld	a,#0x00
   01D7 12                  818 	ld	(de),a
                            819 ;	enemies.c 183
                            820 ; genPlus
                            821 ; genPlusIncr
                            822 ;	genPlusIncr failed
   01D8 79                  823 	ld	a,c
   01D9 C6 0A               824 	add	a,#0x0A
   01DB 5F                  825 	ld	e,a
   01DC 78                  826 	ld	a,b
   01DD CE 00               827 	adc	a,#0x00
   01DF 57                  828 	ld	d,a
                            829 ; genAssign (pointer)
   01E0 3E 00               830 	ld	a,#0x00
   01E2 12                  831 	ld	(de),a
                            832 ; genLabel
   01E3                     833 00101$:
                            834 ; genEndFunction
                            835 	
   01E3 C1                  836 	pop	bc
   01E4 C9                  837 	ret
   01E5                     838 ___InitEnemy_end:
                            839 ;	enemies.c 193
                            840 ; genLabel
                            841 ; genFunction
                            842 ;	---------------------------------
                            843 ; Function SpawnEnemy
                            844 ; ---------------------------------
   01E5                     845 ___SpawnEnemy_start:
   01E5                     846 _SpawnEnemy:
   01E5 C5                  847 	push	bc
   01E6 E8 FA               848 	lda	sp,-6(sp)
                            849 ;	enemies.c 196
                            850 ; genIpush
   01E8 3E 0D               851 	ld	a,#0x0D
   01EA F5                  852 	push	af
   01EB 33                  853 	inc	sp
                            854 ; genIpush
                            855 ; AOP_STK for 
   01EC F8 0B               856 	lda	hl,11(sp)
   01EE 7E                  857 	ld	a,(hl)
   01EF F5                  858 	push	af
   01F0 33                  859 	inc	sp
                            860 ; genCall
   01F1 CD 00 00            861 	call	__muluchar
   01F4 4B                  862 	ld	c,e
   01F5 E8 02               863 	lda	sp,2(sp)
                            864 ; genPlus
                            865 ; AOP_STK for _SpawnEnemy_ptrEnemy_1_1
                            866 ;	genPlusIncr failed
   01F7 11 00 00            867 	ld	de,#_m_aoEnemies + 0
   01FA 69                  868 	ld	l,c
   01FB 26 00               869 	ld	h,#0x00
   01FD 19                  870 	add	hl,de
   01FE 7D                  871 	ld	a,l
   01FF 54                  872 	ld	d,h
   0200 F8 04               873 	lda	hl,4(sp)
   0202 22                  874 	ld	(hl+),a
   0203 72                  875 	ld	(hl),d
                            876 ;	enemies.c 204
                            877 ; genCmpGt
                            878 ; AOP_STK for 
   0204 AF                  879 	xor	a,a
   0205 3E 07               880 	ld	a,#0x07
   0207 F8 0B               881 	lda	hl,11(sp)
   0209 9E                  882 	sbc	a,(hl) ; 2
   020A D2 0F 02            883 	jp	nc,00102$
                            884 ; genAssign
                            885 ; AOP_STK for 
   020D 36 02               886 	ld	(hl),#0x02
                            887 ; genLabel
   020F                     888 00102$:
                            889 ;	enemies.c 207
                            890 ; genLeftShift
                            891 ; AOP_STK for 
   020F F8 0B               892 	lda	hl,11(sp)
   0211 7E                  893 	ld	a,(hl)
   0212 87                  894 	add	a,a
   0213 4F                  895 	ld	c,a
                            896 ; genPlus
                            897 ; AOP_HL for _SpawnEnemy_sloc1_1_0
                            898 ;	genPlusIncr failed
   0214 3E 38               899 	ld	a,#<_m_anSpawnPositions
   0216 81                  900 	add	a,c
   0217 21 23 01            901 	ld	hl,#_SpawnEnemy_sloc1_1_0 + 0
   021A 77                  902 	ld	(hl),a
   021B 3E 01               903 	ld	a,#>_m_anSpawnPositions
   021D CE 00               904 	adc	a,#0x00
   021F 23                  905 	inc	hl
   0220 77                  906 	ld	(hl),a
                            907 ; genPointerGet
                            908 ; AOP_HL for _SpawnEnemy_sloc1_1_0
                            909 ; AOP_HL for _SpawnEnemy_sloc0_1_0
   0221 2B                  910 	dec	hl
   0222 5E                  911 	ld	e,(hl)
   0223 23                  912 	inc	hl
   0224 56                  913 	ld	d,(hl)
   0225 1A                  914 	ld	a,(de)
   0226 21 22 01            915 	ld	hl,#_SpawnEnemy_sloc0_1_0 + 0
   0229 77                  916 	ld	(hl),a
                            917 ; genAssign (pointer)
                            918 ; AOP_STK for _SpawnEnemy_ptrEnemy_1_1
                            919 ; AOP_HL for _SpawnEnemy_sloc0_1_0
   022A F8 04               920 	lda	hl,4(sp)
   022C 5E                  921 	ld	e,(hl)
   022D 23                  922 	inc	hl
   022E 56                  923 	ld	d,(hl)
   022F 21 22 01            924 	ld	hl,#_SpawnEnemy_sloc0_1_0 + 0
   0232 7E                  925 	ld	a,(hl)
   0233 12                  926 	ld	(de),a
                            927 ;	enemies.c 208
                            928 ; genPlus
                            929 ; AOP_STK for _SpawnEnemy_ptrEnemy_1_1
                            930 ; AOP_STK for _SpawnEnemy_sloc2_1_0
                            931 ; genPlusIncr
                            932 ;	genPlusIncr failed
   0234 F8 04               933 	lda	hl,4(sp)
   0236 5E                  934 	ld	e,(hl)
   0237 23                  935 	inc	hl
   0238 56                  936 	ld	d,(hl)
   0239 21 01 00            937 	ld	hl,#0x0001
   023C 19                  938 	add	hl,de
   023D 7D                  939 	ld	a,l
   023E 54                  940 	ld	d,h
   023F F8 02               941 	lda	hl,2(sp)
   0241 22                  942 	ld	(hl+),a
   0242 72                  943 	ld	(hl),d
                            944 ; genPlus
                            945 ; AOP_HL for _SpawnEnemy_sloc1_1_0
                            946 ; genPlusIncr
   0243 21 23 01            947 	ld	hl,#_SpawnEnemy_sloc1_1_0 + 0
   0246 5E                  948 	ld	e,(hl)
   0247 23                  949 	inc	hl
   0248 56                  950 	ld	d,(hl)
   0249 13                  951 	inc	de
                            952 ; genPointerGet
   024A 1A                  953 	ld	a,(de)
   024B 4F                  954 	ld	c,a
                            955 ; genAssign (pointer)
                            956 ; AOP_STK for _SpawnEnemy_sloc2_1_0
   024C F8 02               957 	lda	hl,2(sp)
   024E 5E                  958 	ld	e,(hl)
   024F 23                  959 	inc	hl
   0250 56                  960 	ld	d,(hl)
   0251 79                  961 	ld	a,c
   0252 12                  962 	ld	(de),a
                            963 ;	enemies.c 211
                            964 ; genPlus
                            965 ; AOP_STK for _SpawnEnemy_ptrEnemy_1_1
                            966 ; genPlusIncr
                            967 ;	genPlusIncr failed
   0253 23                  968 	inc	hl
   0254 5E                  969 	ld	e,(hl)
   0255 23                  970 	inc	hl
   0256 56                  971 	ld	d,(hl)
   0257 21 09 00            972 	ld	hl,#0x0009
   025A 19                  973 	add	hl,de
   025B 5D                  974 	ld	e,l
   025C 54                  975 	ld	d,h
                            976 ; genAssign (pointer)
   025D 3E 00               977 	ld	a,#0x00
   025F 12                  978 	ld	(de),a
                            979 ;	enemies.c 212
                            980 ; genPlus
                            981 ; AOP_STK for _SpawnEnemy_ptrEnemy_1_1
                            982 ; genPlusIncr
                            983 ;	genPlusIncr failed
   0260 F8 04               984 	lda	hl,4(sp)
   0262 5E                  985 	ld	e,(hl)
   0263 23                  986 	inc	hl
   0264 56                  987 	ld	d,(hl)
   0265 21 0A 00            988 	ld	hl,#0x000A
   0268 19                  989 	add	hl,de
   0269 5D                  990 	ld	e,l
   026A 54                  991 	ld	d,h
                            992 ; genAssign (pointer)
   026B 3E 00               993 	ld	a,#0x00
   026D 12                  994 	ld	(de),a
                            995 ;	enemies.c 215
                            996 ; genPlus
                            997 ; AOP_STK for _SpawnEnemy_ptrEnemy_1_1
                            998 ; genPlusIncr
                            999 ;	genPlusIncr failed
   026E F8 04              1000 	lda	hl,4(sp)
   0270 5E                 1001 	ld	e,(hl)
   0271 23                 1002 	inc	hl
   0272 56                 1003 	ld	d,(hl)
   0273 21 03 00           1004 	ld	hl,#0x0003
   0276 19                 1005 	add	hl,de
   0277 5D                 1006 	ld	e,l
   0278 54                 1007 	ld	d,h
                           1008 ; genAssign (pointer)
   0279 3E 01              1009 	ld	a,#0x01
   027B 12                 1010 	ld	(de),a
                           1011 ;	enemies.c 216
                           1012 ; genPlus
                           1013 ; AOP_STK for _SpawnEnemy_ptrEnemy_1_1
                           1014 ; genPlusIncr
                           1015 ;	genPlusIncr failed
   027C F8 04              1016 	lda	hl,4(sp)
   027E 5E                 1017 	ld	e,(hl)
   027F 23                 1018 	inc	hl
   0280 56                 1019 	ld	d,(hl)
   0281 21 06 00           1020 	ld	hl,#0x0006
   0284 19                 1021 	add	hl,de
   0285 5D                 1022 	ld	e,l
   0286 54                 1023 	ld	d,h
                           1024 ; genAssign (pointer)
   0287 3E 00              1025 	ld	a,#0x00
   0289 12                 1026 	ld	(de),a
                           1027 ;	enemies.c 217
                           1028 ; genPlus
                           1029 ; AOP_STK for _SpawnEnemy_ptrEnemy_1_1
                           1030 ; genPlusIncr
                           1031 ;	genPlusIncr failed
   028A F8 04              1032 	lda	hl,4(sp)
   028C 5E                 1033 	ld	e,(hl)
   028D 23                 1034 	inc	hl
   028E 56                 1035 	ld	d,(hl)
   028F 21 0C 00           1036 	ld	hl,#0x000C
   0292 19                 1037 	add	hl,de
   0293 5D                 1038 	ld	e,l
   0294 54                 1039 	ld	d,h
                           1040 ; genAssign (pointer)
   0295 3E 00              1041 	ld	a,#0x00
   0297 12                 1042 	ld	(de),a
                           1043 ;	enemies.c 220
                           1044 ; genAssign
                           1045 ; AOP_STK for 
   0298 F8 0B              1046 	lda	hl,11(sp)
   029A 4E                 1047 	ld	c,(hl)
                           1048 ; genPlus
                           1049 ;	genPlusIncr failed
   029B 3E 48              1050 	ld	a,#<_m_anMovementDirX
   029D 81                 1051 	add	a,c
   029E 5F                 1052 	ld	e,a
   029F 3E 01              1053 	ld	a,#>_m_anMovementDirX
   02A1 CE 00              1054 	adc	a,#0x00
   02A3 57                 1055 	ld	d,a
                           1056 ; genPointerGet
   02A4 1A                 1057 	ld	a,(de)
   02A5 47                 1058 	ld	b,a
                           1059 ;	enemies.c 221
                           1060 ; genPlus
                           1061 ;	genPlusIncr failed
   02A6 3E 50              1062 	ld	a,#<_m_anMovementDirY
   02A8 81                 1063 	add	a,c
   02A9 5F                 1064 	ld	e,a
   02AA 3E 01              1065 	ld	a,#>_m_anMovementDirY
   02AC CE 00              1066 	adc	a,#0x00
   02AE 57                 1067 	ld	d,a
                           1068 ; genPointerGet
   02AF 1A                 1069 	ld	a,(de)
   02B0 4F                 1070 	ld	c,a
                           1071 ;	enemies.c 222
                           1072 ; genPlus
                           1073 ; AOP_STK for _SpawnEnemy_ptrEnemy_1_1
                           1074 ; genPlusIncr
                           1075 ;	genPlusIncr failed
   02B1 F8 04              1076 	lda	hl,4(sp)
   02B3 5E                 1077 	ld	e,(hl)
   02B4 23                 1078 	inc	hl
   02B5 56                 1079 	ld	d,(hl)
   02B6 21 04 00           1080 	ld	hl,#0x0004
   02B9 19                 1081 	add	hl,de
   02BA 5D                 1082 	ld	e,l
   02BB 54                 1083 	ld	d,h
                           1084 ; genAssign (pointer)
   02BC 78                 1085 	ld	a,b
   02BD 12                 1086 	ld	(de),a
                           1087 ;	enemies.c 223
                           1088 ; genPlus
                           1089 ; AOP_STK for _SpawnEnemy_ptrEnemy_1_1
                           1090 ; genPlusIncr
                           1091 ;	genPlusIncr failed
   02BE F8 04              1092 	lda	hl,4(sp)
   02C0 5E                 1093 	ld	e,(hl)
   02C1 23                 1094 	inc	hl
   02C2 56                 1095 	ld	d,(hl)
   02C3 21 05 00           1096 	ld	hl,#0x0005
   02C6 19                 1097 	add	hl,de
   02C7 5D                 1098 	ld	e,l
   02C8 54                 1099 	ld	d,h
                           1100 ; genAssign (pointer)
   02C9 79                 1101 	ld	a,c
   02CA 12                 1102 	ld	(de),a
                           1103 ;	enemies.c 226
                           1104 ; genPlus
                           1105 ; AOP_STK for _SpawnEnemy_ptrEnemy_1_1
                           1106 ; genPlusIncr
                           1107 ;	genPlusIncr failed
   02CB F8 04              1108 	lda	hl,4(sp)
   02CD 5E                 1109 	ld	e,(hl)
   02CE 23                 1110 	inc	hl
   02CF 56                 1111 	ld	d,(hl)
   02D0 21 07 00           1112 	ld	hl,#0x0007
   02D3 19                 1113 	add	hl,de
   02D4 5D                 1114 	ld	e,l
   02D5 54                 1115 	ld	d,h
                           1116 ; genAssign (pointer)
                           1117 ; AOP_HL for _m_nCurrentSpeed
   02D6 21 12 01           1118 	ld	hl,#_m_nCurrentSpeed + 0
   02D9 7E                 1119 	ld	a,(hl)
   02DA 12                 1120 	ld	(de),a
                           1121 ;	enemies.c 229
                           1122 ; genPlus
                           1123 ; AOP_STK for _SpawnEnemy_ptrEnemy_1_1
                           1124 ; AOP_HL for _SpawnEnemy_sloc1_1_0
                           1125 ; genPlusIncr
                           1126 ;	genPlusIncr failed
   02DB F8 04              1127 	lda	hl,4(sp)
   02DD 5E                 1128 	ld	e,(hl)
   02DE 23                 1129 	inc	hl
   02DF 56                 1130 	ld	d,(hl)
   02E0 21 02 00           1131 	ld	hl,#0x0002
   02E3 19                 1132 	add	hl,de
   02E4 7D                 1133 	ld	a,l
   02E5 54                 1134 	ld	d,h
   02E6 21 23 01           1135 	ld	hl,#_SpawnEnemy_sloc1_1_0 + 0
   02E9 22                 1136 	ld	(hl+),a
   02EA 72                 1137 	ld	(hl),d
                           1138 ; genAssign
                           1139 ; AOP_HL for _m_nNextSpriteID
   02EB 21 D0 00           1140 	ld	hl,#_m_nNextSpriteID + 0
   02EE 4E                 1141 	ld	c,(hl)
                           1142 ; genPlus
                           1143 ; AOP_HL for _m_nNextSpriteID
                           1144 ; genPlusIncr
   02EF 34                 1145 	inc	(hl)
                           1146 ; genAssign (pointer)
                           1147 ; AOP_HL for _SpawnEnemy_sloc1_1_0
   02F0 21 23 01           1148 	ld	hl,#_SpawnEnemy_sloc1_1_0 + 0
   02F3 5E                 1149 	ld	e,(hl)
   02F4 23                 1150 	inc	hl
   02F5 56                 1151 	ld	d,(hl)
   02F6 79                 1152 	ld	a,c
   02F7 12                 1153 	ld	(de),a
                           1154 ;	enemies.c 232
                           1155 ; genCmpLt
                           1156 ; AOP_HL for _m_nNextSpriteID
   02F8 21 D0 00           1157 	ld	hl,#_m_nNextSpriteID + 0
   02FB 7E                 1158 	ld	a,(hl)
   02FC FE 28              1159 	cp	#0x28
   02FE DA 03 03           1160 	jp	c,00104$
                           1161 ; genAssign
                           1162 ; AOP_HL for _m_nNextSpriteID
   0301 36 07              1163 	ld	(hl),#0x07
                           1164 ; genLabel
   0303                    1165 00104$:
                           1166 ;	enemies.c 235
                           1167 ; genPlus
                           1168 ; AOP_STK for _SpawnEnemy_ptrEnemy_1_1
                           1169 ; genPlusIncr
                           1170 ;	genPlusIncr failed
   0303 F8 04              1171 	lda	hl,4(sp)
   0305 5E                 1172 	ld	e,(hl)
   0306 23                 1173 	inc	hl
   0307 56                 1174 	ld	d,(hl)
   0308 21 08 00           1175 	ld	hl,#0x0008
   030B 19                 1176 	add	hl,de
   030C 5D                 1177 	ld	e,l
   030D 54                 1178 	ld	d,h
                           1179 ; genAssign (pointer)
                           1180 ; AOP_STK for 
   030E F8 0B              1181 	lda	hl,11(sp)
   0310 7E                 1182 	ld	a,(hl)
   0311 12                 1183 	ld	(de),a
                           1184 ;	enemies.c 239
                           1185 ; genPlus
                           1186 ; AOP_STK for _SpawnEnemy_ptrEnemy_1_1
                           1187 ; AOP_STK for _SpawnEnemy_sloc3_1_0
                           1188 ; genPlusIncr
                           1189 ;	genPlusIncr failed
   0312 F8 04              1190 	lda	hl,4(sp)
   0314 5E                 1191 	ld	e,(hl)
   0315 23                 1192 	inc	hl
   0316 56                 1193 	ld	d,(hl)
   0317 21 0B 00           1194 	ld	hl,#0x000B
   031A 19                 1195 	add	hl,de
   031B 7D                 1196 	ld	a,l
   031C 54                 1197 	ld	d,h
   031D F8 00              1198 	lda	hl,0(sp)
   031F 22                 1199 	ld	(hl+),a
   0320 72                 1200 	ld	(hl),d
                           1201 ; genCall
   0321 CD 00 00           1202 	call	_rand
   0324 4B                 1203 	ld	c,e
                           1204 ; genRightShift
                           1205 ; shift right 	result 1, left 1
                           1206 ; Removed redundent load
   0325 CB 39              1207 	srl	c
   0327 CB 39              1208 	srl	c
   0329 CB 39              1209 	srl	c
   032B CB 39              1210 	srl	c
                           1211 ; genIpush
   032D 3E 05              1212 	ld	a,#0x05
   032F F5                 1213 	push	af
   0330 33                 1214 	inc	sp
                           1215 ; genIpush
   0331 79                 1216 	ld	a,c
   0332 F5                 1217 	push	af
   0333 33                 1218 	inc	sp
                           1219 ; genCall
   0334 CD 00 00           1220 	call	__modschar
   0337 4B                 1221 	ld	c,e
   0338 E8 02              1222 	lda	sp,2(sp)
                           1223 ; genIpush
   033A 79                 1224 	ld	a,c
   033B F5                 1225 	push	af
   033C 33                 1226 	inc	sp
                           1227 ; genCall
   033D CD 8E 03           1228 	call	_GetSprite
   0340 4B                 1229 	ld	c,e
   0341 E8 01              1230 	lda	sp,1(sp)
                           1231 ; genPlus
                           1232 ; AOP_STK for 
                           1233 ;	genPlusIncr failed
   0343 79                 1234 	ld	a,c
   0344 F8 0B              1235 	lda	hl,11(sp)
   0346 86                 1236 	add	a,(hl)
   0347 4F                 1237 	ld	c,a
                           1238 ; genAssign (pointer)
                           1239 ; AOP_STK for _SpawnEnemy_sloc3_1_0
   0348 F8 00              1240 	lda	hl,0(sp)
   034A 5E                 1241 	ld	e,(hl)
   034B 23                 1242 	inc	hl
   034C 56                 1243 	ld	d,(hl)
   034D 79                 1244 	ld	a,c
   034E 12                 1245 	ld	(de),a
                           1246 ;	enemies.c 242
                           1247 ; genPointerGet
                           1248 ; AOP_HL for _SpawnEnemy_sloc1_1_0
   034F 21 23 01           1249 	ld	hl,#_SpawnEnemy_sloc1_1_0 + 0
   0352 5E                 1250 	ld	e,(hl)
   0353 23                 1251 	inc	hl
   0354 56                 1252 	ld	d,(hl)
   0355 1A                 1253 	ld	a,(de)
   0356 4F                 1254 	ld	c,a
                           1255 ; genIpush
   0357 3E 20              1256 	ld	a,#0x20
   0359 F5                 1257 	push	af
   035A 33                 1258 	inc	sp
                           1259 ; genIpush
   035B 79                 1260 	ld	a,c
   035C F5                 1261 	push	af
   035D 33                 1262 	inc	sp
                           1263 ; genCall
   035E CD 00 00           1264 	call	_set_sprite_tile
   0361 E8 02              1265 	lda	sp,2(sp)
                           1266 ;	enemies.c 245
                           1267 ; genPointerGet
                           1268 ; AOP_STK for _SpawnEnemy_sloc2_1_0
   0363 F8 02              1269 	lda	hl,2(sp)
   0365 5E                 1270 	ld	e,(hl)
   0366 23                 1271 	inc	hl
   0367 56                 1272 	ld	d,(hl)
   0368 1A                 1273 	ld	a,(de)
   0369 4F                 1274 	ld	c,a
                           1275 ; genPointerGet
                           1276 ; AOP_STK for _SpawnEnemy_ptrEnemy_1_1
                           1277 ; AOP_STK for _SpawnEnemy_sloc3_1_0
   036A 23                 1278 	inc	hl
   036B 5E                 1279 	ld	e,(hl)
   036C 23                 1280 	inc	hl
   036D 56                 1281 	ld	d,(hl)
   036E 1A                 1282 	ld	a,(de)
   036F F8 00              1283 	lda	hl,0(sp)
   0371 77                 1284 	ld	(hl),a
                           1285 ; genPointerGet
                           1286 ; AOP_HL for _SpawnEnemy_sloc1_1_0
   0372 21 23 01           1287 	ld	hl,#_SpawnEnemy_sloc1_1_0 + 0
   0375 5E                 1288 	ld	e,(hl)
   0376 23                 1289 	inc	hl
   0377 56                 1290 	ld	d,(hl)
   0378 1A                 1291 	ld	a,(de)
   0379 47                 1292 	ld	b,a
                           1293 ; genIpush
   037A 79                 1294 	ld	a,c
   037B F5                 1295 	push	af
   037C 33                 1296 	inc	sp
                           1297 ; genIpush
                           1298 ; AOP_STK for _SpawnEnemy_sloc3_1_0
   037D F8 01              1299 	lda	hl,1(sp)
   037F 7E                 1300 	ld	a,(hl)
   0380 F5                 1301 	push	af
   0381 33                 1302 	inc	sp
                           1303 ; genIpush
   0382 78                 1304 	ld	a,b
   0383 F5                 1305 	push	af
   0384 33                 1306 	inc	sp
                           1307 ; genCall
   0385 CD 00 00           1308 	call	_move_sprite
   0388 E8 03              1309 	lda	sp,3(sp)
                           1310 ; genLabel
   038A                    1311 00105$:
                           1312 ; genEndFunction
   038A E8 06              1313 	lda	sp,6(sp)
   038C C1                 1314 	pop	bc
   038D C9                 1315 	ret
   038E                    1316 ___SpawnEnemy_end:
                           1317 ;	enemies.c 258
                           1318 ; genLabel
                           1319 ; genFunction
                           1320 ;	---------------------------------
                           1321 ; Function GetSprite
                           1322 ; ---------------------------------
   038E                    1323 ___GetSprite_start:
   038E                    1324 _GetSprite:
                           1325 	
                           1326 ;	enemies.c 262
                           1327 ; genCmpLt
                           1328 ; AOP_STK for 
   038E F8 02              1329 	lda	hl,2(sp)
   0390 7E                 1330 	ld	a,(hl)
   0391 EE 80              1331 	xor	a,#0x80
   0393 FE 80              1332 	cp	#0x00^0x80
   0395 DA D5 03           1333 	jp	c,00106$
                           1334 ; genCmpGt
                           1335 ; AOP_STK for 
   0398 1E 84              1336 	ld	e,#0x84
   039A 7E                 1337 	ld	a,(hl)
   039B EE 80              1338 	xor	a,#0x80
   039D 57                 1339 	ld	d,a
   039E 7B                 1340 	ld	a,e
   039F 9A                 1341 	sbc	a,d
   03A0 DA D5 03           1342 	jp	c,00106$
                           1343 ; genJumpTab
                           1344 ; AOP_STK for 
   03A3 5E                 1345 	ld	e,(hl)
   03A4 16 00              1346 	ld	d,#0x00
   03A6 21 AD 03           1347 	ld	hl,#00112$
   03A9 19                 1348 	add	hl,de
   03AA 19                 1349 	add	hl,de
   03AB 19                 1350 	add	hl,de
   03AC E9                 1351 	jp	(hl)
   03AD                    1352 00112$:
   03AD C3 BC 03           1353 	jp	00101$
   03B0 C3 C1 03           1354 	jp	00102$
   03B3 C3 C6 03           1355 	jp	00103$
   03B6 C3 CB 03           1356 	jp	00104$
   03B9 C3 D0 03           1357 	jp	00105$
                           1358 ;	enemies.c 265
                           1359 ; genLabel
   03BC                    1360 00101$:
                           1361 ; genRet
   03BC 1E 2F              1362 	ld	e,#0x2F
   03BE C3 D7 03           1363 	jp	00108$
                           1364 ;	enemies.c 268
                           1365 ; genLabel
   03C1                    1366 00102$:
                           1367 ; genRet
   03C1 1E 37              1368 	ld	e,#0x37
   03C3 C3 D7 03           1369 	jp	00108$
                           1370 ;	enemies.c 271
                           1371 ; genLabel
   03C6                    1372 00103$:
                           1373 ; genRet
   03C6 1E 3F              1374 	ld	e,#0x3F
   03C8 C3 D7 03           1375 	jp	00108$
                           1376 ;	enemies.c 274
                           1377 ; genLabel
   03CB                    1378 00104$:
                           1379 ; genRet
   03CB 1E 47              1380 	ld	e,#0x47
   03CD C3 D7 03           1381 	jp	00108$
                           1382 ;	enemies.c 277
                           1383 ; genLabel
   03D0                    1384 00105$:
                           1385 ; genRet
   03D0 1E 4F              1386 	ld	e,#0x4F
   03D2 C3 D7 03           1387 	jp	00108$
                           1388 ;	enemies.c 281
                           1389 ; genLabel
   03D5                    1390 00106$:
                           1391 ; genRet
   03D5 1E 2F              1392 	ld	e,#0x2F
                           1393 ;	enemies.c 283
                           1394 ; genLabel
   03D7                    1395 00108$:
                           1396 ; genEndFunction
                           1397 	
   03D7 C9                 1398 	ret
   03D8                    1399 ___GetSprite_end:
                           1400 ;	enemies.c 295
                           1401 ; genLabel
                           1402 ; genFunction
                           1403 ;	---------------------------------
                           1404 ; Function UpdateEnemy
                           1405 ; ---------------------------------
   03D8                    1406 ___UpdateEnemy_start:
   03D8                    1407 _UpdateEnemy:
   03D8 C5                 1408 	push	bc
   03D9 E8 F5              1409 	lda	sp,-11(sp)
                           1410 ;	enemies.c 298
                           1411 ; genIpush
   03DB 3E 0D              1412 	ld	a,#0x0D
   03DD F5                 1413 	push	af
   03DE 33                 1414 	inc	sp
                           1415 ; genIpush
                           1416 ; AOP_STK for 
   03DF F8 10              1417 	lda	hl,16(sp)
   03E1 7E                 1418 	ld	a,(hl)
   03E2 F5                 1419 	push	af
   03E3 33                 1420 	inc	sp
                           1421 ; genCall
   03E4 CD 00 00           1422 	call	__muluchar
   03E7 4B                 1423 	ld	c,e
   03E8 E8 02              1424 	lda	sp,2(sp)
                           1425 ; genPlus
                           1426 ; AOP_STK for _UpdateEnemy_ptrEnemy_1_1
                           1427 ;	genPlusIncr failed
   03EA 11 00 00           1428 	ld	de,#_m_aoEnemies + 0
   03ED 69                 1429 	ld	l,c
   03EE 26 00              1430 	ld	h,#0x00
   03F0 19                 1431 	add	hl,de
   03F1 7D                 1432 	ld	a,l
   03F2 54                 1433 	ld	d,h
   03F3 F8 09              1434 	lda	hl,9(sp)
   03F5 22                 1435 	ld	(hl+),a
   03F6 72                 1436 	ld	(hl),d
                           1437 ;	enemies.c 301
                           1438 ; genPlus
                           1439 ; AOP_STK for _UpdateEnemy_ptrEnemy_1_1
                           1440 ; genPlusIncr
                           1441 ;	genPlusIncr failed
   03F7 2B                 1442 	dec	hl
   03F8 5E                 1443 	ld	e,(hl)
   03F9 23                 1444 	inc	hl
   03FA 56                 1445 	ld	d,(hl)
   03FB 21 03 00           1446 	ld	hl,#0x0003
   03FE 19                 1447 	add	hl,de
   03FF 5D                 1448 	ld	e,l
   0400 54                 1449 	ld	d,h
                           1450 ; genPointerGet
   0401 1A                 1451 	ld	a,(de)
   0402 4F                 1452 	ld	c,a
                           1453 ; genIfx
                           1454 ; Removed redundent or a,a
   0403 AF                 1455 	xor	a,a
   0404 B1                 1456 	or	a,c
                           1457 ; genRet
                           1458 ; genLabel
                           1459 ; Rule 5
   0405 CA 92 06           1460 	jp	z,00135$
   0408                    1461 00102$:
                           1462 ;	enemies.c 304
                           1463 ; genPlus
                           1464 ; AOP_STK for _UpdateEnemy_ptrEnemy_1_1
                           1465 ; AOP_STK for _UpdateEnemy_sloc1_1_0
                           1466 ; genPlusIncr
                           1467 ;	genPlusIncr failed
   0408 F8 09              1468 	lda	hl,9(sp)
   040A 5E                 1469 	ld	e,(hl)
   040B 23                 1470 	inc	hl
   040C 56                 1471 	ld	d,(hl)
   040D 21 06 00           1472 	ld	hl,#0x0006
   0410 19                 1473 	add	hl,de
   0411 7D                 1474 	ld	a,l
   0412 54                 1475 	ld	d,h
   0413 F8 06              1476 	lda	hl,6(sp)
   0415 22                 1477 	ld	(hl+),a
   0416 72                 1478 	ld	(hl),d
                           1479 ; genPointerGet
                           1480 ; AOP_STK for _UpdateEnemy_sloc1_1_0
                           1481 ; AOP_STK for _UpdateEnemy_sloc0_1_0
   0417 2B                 1482 	dec	hl
   0418 5E                 1483 	ld	e,(hl)
   0419 23                 1484 	inc	hl
   041A 56                 1485 	ld	d,(hl)
   041B 1A                 1486 	ld	a,(de)
   041C 23                 1487 	inc	hl
   041D 77                 1488 	ld	(hl),a
                           1489 ; genIfx
                           1490 ; AOP_STK for _UpdateEnemy_sloc0_1_0
                           1491 ; Removed redundent or a,a
   041E AF                 1492 	xor	a,a
   041F B6                 1493 	or	a,(hl)
   0420 C2 8F 05           1494 	jp	nz,00120$
                           1495 ;	enemies.c 307
                           1496 ; genPlus
                           1497 ; AOP_STK for _UpdateEnemy_ptrEnemy_1_1
                           1498 ; AOP_STK for _UpdateEnemy_sloc2_1_0
                           1499 ; genPlusIncr
                           1500 ;	genPlusIncr failed
   0423 23                 1501 	inc	hl
   0424 5E                 1502 	ld	e,(hl)
   0425 23                 1503 	inc	hl
   0426 56                 1504 	ld	d,(hl)
   0427 21 09 00           1505 	ld	hl,#0x0009
   042A 19                 1506 	add	hl,de
   042B 7D                 1507 	ld	a,l
   042C 54                 1508 	ld	d,h
   042D F8 04              1509 	lda	hl,4(sp)
   042F 22                 1510 	ld	(hl+),a
   0430 72                 1511 	ld	(hl),d
                           1512 ; genPointerGet
                           1513 ; AOP_STK for _UpdateEnemy_sloc2_1_0
   0431 2B                 1514 	dec	hl
   0432 5E                 1515 	ld	e,(hl)
   0433 23                 1516 	inc	hl
   0434 56                 1517 	ld	d,(hl)
   0435 1A                 1518 	ld	a,(de)
                           1519 ; genPlus
                           1520 ; AOP_HL for _m_nCurrentSpeed
                           1521 ; AOP_STK for _UpdateEnemy_sloc0_1_0
                           1522 ;	genPlusIncr failed
   0436 21 12 01           1523 	ld	hl,#_m_nCurrentSpeed + 0
   0439 86                 1524 	add	a,(hl)
   043A F8 08              1525 	lda	hl,8(sp)
   043C 77                 1526 	ld	(hl),a
                           1527 ; genAssign (pointer)
                           1528 ; AOP_STK for _UpdateEnemy_sloc2_1_0
                           1529 ; AOP_STK for _UpdateEnemy_sloc0_1_0
   043D F8 04              1530 	lda	hl,4(sp)
   043F 5E                 1531 	ld	e,(hl)
   0440 23                 1532 	inc	hl
   0441 56                 1533 	ld	d,(hl)
   0442 F8 08              1534 	lda	hl,8(sp)
   0444 7E                 1535 	ld	a,(hl)
   0445 12                 1536 	ld	(de),a
                           1537 ;	enemies.c 308
                           1538 ; genPlus
                           1539 ; AOP_STK for _UpdateEnemy_ptrEnemy_1_1
                           1540 ; AOP_STK for _UpdateEnemy_sloc3_1_0
                           1541 ; genPlusIncr
                           1542 ;	genPlusIncr failed
   0446 23                 1543 	inc	hl
   0447 5E                 1544 	ld	e,(hl)
   0448 23                 1545 	inc	hl
   0449 56                 1546 	ld	d,(hl)
   044A 21 0A 00           1547 	ld	hl,#0x000A
   044D 19                 1548 	add	hl,de
   044E 7D                 1549 	ld	a,l
   044F 54                 1550 	ld	d,h
   0450 F8 02              1551 	lda	hl,2(sp)
   0452 22                 1552 	ld	(hl+),a
   0453 72                 1553 	ld	(hl),d
                           1554 ; genPointerGet
                           1555 ; AOP_STK for _UpdateEnemy_sloc3_1_0
   0454 2B                 1556 	dec	hl
   0455 5E                 1557 	ld	e,(hl)
   0456 23                 1558 	inc	hl
   0457 56                 1559 	ld	d,(hl)
   0458 1A                 1560 	ld	a,(de)
                           1561 ; genPlus
                           1562 ; AOP_HL for _m_nCurrentSpeed
                           1563 ;	genPlusIncr failed
   0459 21 12 01           1564 	ld	hl,#_m_nCurrentSpeed + 0
   045C 86                 1565 	add	a,(hl)
   045D 4F                 1566 	ld	c,a
                           1567 ; genAssign (pointer)
                           1568 ; AOP_STK for _UpdateEnemy_sloc3_1_0
   045E F8 02              1569 	lda	hl,2(sp)
   0460 5E                 1570 	ld	e,(hl)
   0461 23                 1571 	inc	hl
   0462 56                 1572 	ld	d,(hl)
   0463 79                 1573 	ld	a,c
   0464 12                 1574 	ld	(de),a
                           1575 ;	enemies.c 310
                           1576 ; genPointerGet
                           1577 ; AOP_STK for _UpdateEnemy_sloc2_1_0
   0465 23                 1578 	inc	hl
   0466 5E                 1579 	ld	e,(hl)
   0467 23                 1580 	inc	hl
   0468 56                 1581 	ld	d,(hl)
   0469 1A                 1582 	ld	a,(de)
   046A 4F                 1583 	ld	c,a
                           1584 ; genCmpLt
                           1585 ; AOP_STK for _UpdateEnemy_sloc0_1_0
   046B F8 08              1586 	lda	hl,8(sp)
   046D 7E                 1587 	ld	a,(hl)
   046E FE 10              1588 	cp	#0x10
   0470 DA 98 04           1589 	jp	c,00104$
                           1590 ;	enemies.c 312
                           1591 ; genPointerGet
                           1592 ; AOP_STK for _UpdateEnemy_ptrEnemy_1_1
   0473 23                 1593 	inc	hl
   0474 5E                 1594 	ld	e,(hl)
   0475 23                 1595 	inc	hl
   0476 56                 1596 	ld	d,(hl)
   0477 1A                 1597 	ld	a,(de)
   0478 47                 1598 	ld	b,a
                           1599 ; genPlus
                           1600 ; AOP_STK for _UpdateEnemy_ptrEnemy_1_1
                           1601 ; genPlusIncr
                           1602 ;	genPlusIncr failed
   0479 2B                 1603 	dec	hl
   047A 5E                 1604 	ld	e,(hl)
   047B 23                 1605 	inc	hl
   047C 56                 1606 	ld	d,(hl)
   047D 21 04 00           1607 	ld	hl,#0x0004
   0480 19                 1608 	add	hl,de
   0481 5D                 1609 	ld	e,l
   0482 54                 1610 	ld	d,h
                           1611 ; genPointerGet
   0483 1A                 1612 	ld	a,(de)
                           1613 ; genPlus
                           1614 ;	genPlusIncr failed
   0484 80                 1615 	add	a,b
   0485 47                 1616 	ld	b,a
                           1617 ; genAssign (pointer)
                           1618 ; AOP_STK for _UpdateEnemy_ptrEnemy_1_1
   0486 F8 09              1619 	lda	hl,9(sp)
   0488 5E                 1620 	ld	e,(hl)
   0489 23                 1621 	inc	hl
   048A 56                 1622 	ld	d,(hl)
   048B 78                 1623 	ld	a,b
   048C 12                 1624 	ld	(de),a
                           1625 ;	enemies.c 313
                           1626 ; genMinus
   048D 79                 1627 	ld	a,c
   048E C6 F0              1628 	add	a,#0xF0
   0490 4F                 1629 	ld	c,a
                           1630 ; genAssign (pointer)
                           1631 ; AOP_STK for _UpdateEnemy_sloc2_1_0
   0491 F8 04              1632 	lda	hl,4(sp)
   0493 5E                 1633 	ld	e,(hl)
   0494 23                 1634 	inc	hl
   0495 56                 1635 	ld	d,(hl)
   0496 79                 1636 	ld	a,c
   0497 12                 1637 	ld	(de),a
                           1638 ; genLabel
   0498                    1639 00104$:
                           1640 ;	enemies.c 315
                           1641 ; genPointerGet
                           1642 ; AOP_STK for _UpdateEnemy_sloc3_1_0
   0498 F8 02              1643 	lda	hl,2(sp)
   049A 5E                 1644 	ld	e,(hl)
   049B 23                 1645 	inc	hl
   049C 56                 1646 	ld	d,(hl)
   049D 1A                 1647 	ld	a,(de)
   049E 4F                 1648 	ld	c,a
                           1649 ; genCmpLt
   049F 79                 1650 	ld	a,c
   04A0 FE 10              1651 	cp	#0x10
   04A2 DA E3 04           1652 	jp	c,00106$
                           1653 ;	enemies.c 317
                           1654 ; genPlus
                           1655 ; AOP_STK for _UpdateEnemy_ptrEnemy_1_1
                           1656 ; AOP_STK for _UpdateEnemy_sloc4_1_0
                           1657 ; genPlusIncr
                           1658 ;	genPlusIncr failed
   04A5 F8 09              1659 	lda	hl,9(sp)
   04A7 5E                 1660 	ld	e,(hl)
   04A8 23                 1661 	inc	hl
   04A9 56                 1662 	ld	d,(hl)
   04AA 21 01 00           1663 	ld	hl,#0x0001
   04AD 19                 1664 	add	hl,de
   04AE 7D                 1665 	ld	a,l
   04AF 54                 1666 	ld	d,h
   04B0 F8 00              1667 	lda	hl,0(sp)
   04B2 22                 1668 	ld	(hl+),a
   04B3 72                 1669 	ld	(hl),d
                           1670 ; genPointerGet
                           1671 ; AOP_STK for _UpdateEnemy_sloc4_1_0
                           1672 ; AOP_STK for _UpdateEnemy_sloc2_1_0
   04B4 2B                 1673 	dec	hl
   04B5 5E                 1674 	ld	e,(hl)
   04B6 23                 1675 	inc	hl
   04B7 56                 1676 	ld	d,(hl)
   04B8 1A                 1677 	ld	a,(de)
   04B9 F8 04              1678 	lda	hl,4(sp)
   04BB 77                 1679 	ld	(hl),a
                           1680 ; genPlus
                           1681 ; AOP_STK for _UpdateEnemy_ptrEnemy_1_1
                           1682 ; genPlusIncr
                           1683 ;	genPlusIncr failed
   04BC F8 09              1684 	lda	hl,9(sp)
   04BE 5E                 1685 	ld	e,(hl)
   04BF 23                 1686 	inc	hl
   04C0 56                 1687 	ld	d,(hl)
   04C1 21 05 00           1688 	ld	hl,#0x0005
   04C4 19                 1689 	add	hl,de
   04C5 5D                 1690 	ld	e,l
   04C6 54                 1691 	ld	d,h
                           1692 ; genPointerGet
   04C7 1A                 1693 	ld	a,(de)
                           1694 ; genPlus
                           1695 ; AOP_STK for _UpdateEnemy_sloc2_1_0
                           1696 ;	genPlusIncr failed
   04C8 F8 04              1697 	lda	hl,4(sp)
   04CA 86                 1698 	add	a,(hl)
   04CB 4F                 1699 	ld	c,a
                           1700 ; genAssign (pointer)
                           1701 ; AOP_STK for _UpdateEnemy_sloc4_1_0
   04CC F8 00              1702 	lda	hl,0(sp)
   04CE 5E                 1703 	ld	e,(hl)
   04CF 23                 1704 	inc	hl
   04D0 56                 1705 	ld	d,(hl)
   04D1 79                 1706 	ld	a,c
   04D2 12                 1707 	ld	(de),a
                           1708 ;	enemies.c 318
                           1709 ; genPointerGet
                           1710 ; AOP_STK for _UpdateEnemy_sloc3_1_0
   04D3 23                 1711 	inc	hl
   04D4 5E                 1712 	ld	e,(hl)
   04D5 23                 1713 	inc	hl
   04D6 56                 1714 	ld	d,(hl)
   04D7 1A                 1715 	ld	a,(de)
   04D8 4F                 1716 	ld	c,a
                           1717 ; genMinus
   04D9 79                 1718 	ld	a,c
   04DA C6 F0              1719 	add	a,#0xF0
   04DC 4F                 1720 	ld	c,a
                           1721 ; genAssign (pointer)
                           1722 ; AOP_STK for _UpdateEnemy_sloc3_1_0
   04DD 2B                 1723 	dec	hl
   04DE 5E                 1724 	ld	e,(hl)
   04DF 23                 1725 	inc	hl
   04E0 56                 1726 	ld	d,(hl)
   04E1 79                 1727 	ld	a,c
   04E2 12                 1728 	ld	(de),a
                           1729 ; genLabel
   04E3                    1730 00106$:
                           1731 ;	enemies.c 322
                           1732 ; genPlus
                           1733 ; AOP_STK for _UpdateEnemy_ptrEnemy_1_1
                           1734 ; AOP_STK for _UpdateEnemy_sloc3_1_0
                           1735 ; genPlusIncr
                           1736 ;	genPlusIncr failed
   04E3 F8 09              1737 	lda	hl,9(sp)
   04E5 5E                 1738 	ld	e,(hl)
   04E6 23                 1739 	inc	hl
   04E7 56                 1740 	ld	d,(hl)
   04E8 21 0C 00           1741 	ld	hl,#0x000C
   04EB 19                 1742 	add	hl,de
   04EC 7D                 1743 	ld	a,l
   04ED 54                 1744 	ld	d,h
   04EE F8 02              1745 	lda	hl,2(sp)
   04F0 22                 1746 	ld	(hl+),a
   04F1 72                 1747 	ld	(hl),d
                           1748 ; genPointerGet
                           1749 ; AOP_STK for _UpdateEnemy_sloc3_1_0
                           1750 ; AOP_STK for _UpdateEnemy_sloc4_1_0
   04F2 2B                 1751 	dec	hl
   04F3 5E                 1752 	ld	e,(hl)
   04F4 23                 1753 	inc	hl
   04F5 56                 1754 	ld	d,(hl)
   04F6 1A                 1755 	ld	a,(de)
   04F7 F8 00              1756 	lda	hl,0(sp)
   04F9 77                 1757 	ld	(hl),a
                           1758 ; genIfx
                           1759 ; AOP_STK for _UpdateEnemy_sloc4_1_0
                           1760 ; Removed redundent or a,a
   04FA AF                 1761 	xor	a,a
   04FB B6                 1762 	or	a,(hl)
   04FC C2 56 05           1763 	jp	nz,00113$
                           1764 ;	enemies.c 325
                           1765 ; genPointerGet
                           1766 ; AOP_STK for _UpdateEnemy_ptrEnemy_1_1
   04FF F8 09              1767 	lda	hl,9(sp)
   0501 5E                 1768 	ld	e,(hl)
   0502 23                 1769 	inc	hl
   0503 56                 1770 	ld	d,(hl)
   0504 1A                 1771 	ld	a,(de)
   0505 4F                 1772 	ld	c,a
                           1773 ; genCmpLt
   0506 79                 1774 	ld	a,c
   0507 FE 0F              1775 	cp	#0x0F
   0509 DA 56 05           1776 	jp	c,00113$
                           1777 ; genPointerGet
                           1778 ; AOP_STK for _UpdateEnemy_ptrEnemy_1_1
   050C 2B                 1779 	dec	hl
   050D 5E                 1780 	ld	e,(hl)
   050E 23                 1781 	inc	hl
   050F 56                 1782 	ld	d,(hl)
   0510 1A                 1783 	ld	a,(de)
   0511 4F                 1784 	ld	c,a
                           1785 ; genCmpGt
   0512 AF                 1786 	xor	a,a
   0513 3E 99              1787 	ld	a,#0x99
   0515 99                 1788 	sbc	a,c ; 2
   0516 DA 56 05           1789 	jp	c,00113$
                           1790 ; genPlus
                           1791 ; AOP_STK for _UpdateEnemy_ptrEnemy_1_1
                           1792 ; genPlusIncr
   0519 2B                 1793 	dec	hl
   051A 5E                 1794 	ld	e,(hl)
   051B 23                 1795 	inc	hl
   051C 56                 1796 	ld	d,(hl)
   051D 13                 1797 	inc	de
                           1798 ; genPointerGet
   051E 1A                 1799 	ld	a,(de)
   051F 4F                 1800 	ld	c,a
                           1801 ; genCmpLt
   0520 79                 1802 	ld	a,c
   0521 FE 2C              1803 	cp	#0x2C
   0523 DA 56 05           1804 	jp	c,00113$
                           1805 ; genCmpGt
   0526 AF                 1806 	xor	a,a
   0527 3E 8F              1807 	ld	a,#0x8F
   0529 99                 1808 	sbc	a,c ; 2
   052A DA 56 05           1809 	jp	c,00113$
                           1810 ;	enemies.c 328
                           1811 ; genAssign (pointer)
                           1812 ; AOP_STK for _UpdateEnemy_sloc3_1_0
   052D F8 02              1813 	lda	hl,2(sp)
   052F 5E                 1814 	ld	e,(hl)
   0530 23                 1815 	inc	hl
   0531 56                 1816 	ld	d,(hl)
   0532 3E 01              1817 	ld	a,#0x01
   0534 12                 1818 	ld	(de),a
                           1819 ;	enemies.c 331
                           1820 ; genPlus
                           1821 ; AOP_STK for _UpdateEnemy_ptrEnemy_1_1
                           1822 ; genPlusIncr
                           1823 ;	genPlusIncr failed
   0535 F8 09              1824 	lda	hl,9(sp)
   0537 5E                 1825 	ld	e,(hl)
   0538 23                 1826 	inc	hl
   0539 56                 1827 	ld	d,(hl)
   053A 21 0B 00           1828 	ld	hl,#0x000B
   053D 19                 1829 	add	hl,de
   053E 5D                 1830 	ld	e,l
   053F 54                 1831 	ld	d,h
                           1832 ; genPointerGet
   0540 1A                 1833 	ld	a,(de)
   0541 4F                 1834 	ld	c,a
                           1835 ; genPlus
                           1836 ; AOP_STK for _UpdateEnemy_ptrEnemy_1_1
                           1837 ; genPlusIncr
   0542 F8 09              1838 	lda	hl,9(sp)
   0544 5E                 1839 	ld	e,(hl)
   0545 23                 1840 	inc	hl
   0546 56                 1841 	ld	d,(hl)
   0547 13                 1842 	inc	de
   0548 13                 1843 	inc	de
                           1844 ; genPointerGet
   0549 1A                 1845 	ld	a,(de)
   054A 47                 1846 	ld	b,a
                           1847 ; genIpush
   054B 79                 1848 	ld	a,c
   054C F5                 1849 	push	af
   054D 33                 1850 	inc	sp
                           1851 ; genIpush
   054E 78                 1852 	ld	a,b
   054F F5                 1853 	push	af
   0550 33                 1854 	inc	sp
                           1855 ; genCall
   0551 CD 00 00           1856 	call	_set_sprite_tile
   0554 E8 02              1857 	lda	sp,2(sp)
                           1858 ; genLabel
   0556                    1859 00113$:
                           1860 ;	enemies.c 336
                           1861 ; genPointerGet
                           1862 ; AOP_STK for _UpdateEnemy_ptrEnemy_1_1
   0556 F8 09              1863 	lda	hl,9(sp)
   0558 5E                 1864 	ld	e,(hl)
   0559 23                 1865 	inc	hl
   055A 56                 1866 	ld	d,(hl)
   055B 1A                 1867 	ld	a,(de)
   055C 4F                 1868 	ld	c,a
                           1869 ; genCmpLt
   055D 79                 1870 	ld	a,c
   055E FE 4C              1871 	cp	#0x4C
   0560 DA CC 05           1872 	jp	c,00121$
                           1873 ; genPointerGet
                           1874 ; AOP_STK for _UpdateEnemy_ptrEnemy_1_1
   0563 2B                 1875 	dec	hl
   0564 5E                 1876 	ld	e,(hl)
   0565 23                 1877 	inc	hl
   0566 56                 1878 	ld	d,(hl)
   0567 1A                 1879 	ld	a,(de)
   0568 4F                 1880 	ld	c,a
                           1881 ; genCmpGt
   0569 AF                 1882 	xor	a,a
   056A 3E 56              1883 	ld	a,#0x56
   056C 99                 1884 	sbc	a,c ; 2
   056D DA CC 05           1885 	jp	c,00121$
                           1886 ; genPlus
                           1887 ; AOP_STK for _UpdateEnemy_ptrEnemy_1_1
                           1888 ; genPlusIncr
   0570 2B                 1889 	dec	hl
   0571 5E                 1890 	ld	e,(hl)
   0572 23                 1891 	inc	hl
   0573 56                 1892 	ld	d,(hl)
   0574 13                 1893 	inc	de
                           1894 ; genPointerGet
   0575 1A                 1895 	ld	a,(de)
   0576 4F                 1896 	ld	c,a
                           1897 ; genCmpLt
   0577 79                 1898 	ld	a,c
   0578 FE 4A              1899 	cp	#0x4A
   057A DA CC 05           1900 	jp	c,00121$
                           1901 ; genCmpGt
   057D AF                 1902 	xor	a,a
   057E 3E 54              1903 	ld	a,#0x54
   0580 99                 1904 	sbc	a,c ; 2
   0581 DA CC 05           1905 	jp	c,00121$
                           1906 ;	enemies.c 340
                           1907 ; genAssign (pointer)
                           1908 ; AOP_STK for _UpdateEnemy_sloc1_1_0
   0584 F8 06              1909 	lda	hl,6(sp)
   0586 5E                 1910 	ld	e,(hl)
   0587 23                 1911 	inc	hl
   0588 56                 1912 	ld	d,(hl)
   0589 3E 01              1913 	ld	a,#0x01
   058B 12                 1914 	ld	(de),a
                           1915 ; genGoto
   058C C3 CC 05           1916 	jp	00121$
                           1917 ; genLabel
   058F                    1918 00120$:
                           1919 ;	enemies.c 350
                           1920 ; genAssign
                           1921 ; AOP_STK for 
                           1922 ; AOP_STK for _UpdateEnemy_sloc3_1_0
   058F F8 12              1923 	lda	hl,18(sp)
   0591 2A                 1924 	ld	a,(hl+)
   0592 5E                 1925 	ld	e,(hl)
   0593 F8 02              1926 	lda	hl,2(sp)
   0595 22                 1927 	ld	(hl+),a
   0596 73                 1928 	ld	(hl),e
                           1929 ; genPlus
                           1930 ; AOP_STK for _UpdateEnemy_sloc3_1_0
                           1931 ; AOP_STK for _UpdateEnemy_sloc4_1_0
                           1932 ; genPlusIncr
                           1933 ;	genPlusIncr failed
   0597 2B                 1934 	dec	hl
   0598 5E                 1935 	ld	e,(hl)
   0599 23                 1936 	inc	hl
   059A 56                 1937 	ld	d,(hl)
   059B 21 11 00           1938 	ld	hl,#0x0011
   059E 19                 1939 	add	hl,de
   059F 7D                 1940 	ld	a,l
   05A0 54                 1941 	ld	d,h
   05A1 F8 00              1942 	lda	hl,0(sp)
   05A3 22                 1943 	ld	(hl+),a
   05A4 72                 1944 	ld	(hl),d
                           1945 ; genPointerGet
                           1946 ; AOP_STK for _UpdateEnemy_sloc4_1_0
   05A5 2B                 1947 	dec	hl
   05A6 5E                 1948 	ld	e,(hl)
   05A7 23                 1949 	inc	hl
   05A8 56                 1950 	ld	d,(hl)
   05A9 1A                 1951 	ld	a,(de)
   05AA 4F                 1952 	ld	c,a
   05AB 13                 1953 	inc	de
   05AC 1A                 1954 	ld	a,(de)
   05AD 47                 1955 	ld	b,a
                           1956 ; genMinus
   05AE 79                 1957 	ld	a,c
   05AF C6 FB              1958 	add	a,#0xFB
   05B1 4F                 1959 	ld	c,a
   05B2 78                 1960 	ld	a,b
   05B3 CE FF              1961 	adc	a,#0xFF
   05B5 47                 1962 	ld	b,a
                           1963 ; genAssign (pointer)
                           1964 ; AOP_STK for _UpdateEnemy_sloc4_1_0
   05B6 2B                 1965 	dec	hl
   05B7 5E                 1966 	ld	e,(hl)
   05B8 23                 1967 	inc	hl
   05B9 56                 1968 	ld	d,(hl)
   05BA 79                 1969 	ld	a,c
   05BB 12                 1970 	ld	(de),a
   05BC 13                 1971 	inc	de
   05BD 78                 1972 	ld	a,b
   05BE 12                 1973 	ld	(de),a
                           1974 ;	enemies.c 351
                           1975 ; genPlus
                           1976 ; AOP_STK for _UpdateEnemy_sloc3_1_0
                           1977 ; genPlusIncr
                           1978 ;	genPlusIncr failed
   05BF 23                 1979 	inc	hl
   05C0 5E                 1980 	ld	e,(hl)
   05C1 23                 1981 	inc	hl
   05C2 56                 1982 	ld	d,(hl)
   05C3 21 18 00           1983 	ld	hl,#0x0018
   05C6 19                 1984 	add	hl,de
   05C7 5D                 1985 	ld	e,l
   05C8 54                 1986 	ld	d,h
                           1987 ; genAssign (pointer)
   05C9 3E 01              1988 	ld	a,#0x01
   05CB 12                 1989 	ld	(de),a
                           1990 ; genLabel
   05CC                    1991 00121$:
                           1992 ;	enemies.c 355
                           1993 ; genAnd
                           1994 ; AOP_STK for 
   05CC F8 10              1995 	lda	hl,16(sp)
   05CE 7E                 1996 	ld	a,(hl)
   05CF CB 6F              1997 	bit	5,a
   05D1 CA 69 06           1998 	jp	z,00133$
                           1999 ; genAnd
                           2000 ; AOP_STK for 
   05D4 23                 2001 	inc	hl
   05D5 7E                 2002 	ld	a,(hl)
   05D6 CB 6F              2003 	bit	5,a
   05D8 C2 69 06           2004 	jp	nz,00133$
                           2005 ;	enemies.c 358
                           2006 ; genPointerGet
                           2007 ; AOP_STK for _UpdateEnemy_sloc1_1_0
   05DB F8 06              2008 	lda	hl,6(sp)
   05DD 5E                 2009 	ld	e,(hl)
   05DE 23                 2010 	inc	hl
   05DF 56                 2011 	ld	d,(hl)
   05E0 1A                 2012 	ld	a,(de)
   05E1 4F                 2013 	ld	c,a
                           2014 ; genIfx
                           2015 ; Removed redundent or a,a
   05E2 AF                 2016 	xor	a,a
   05E3 B1                 2017 	or	a,c
   05E4 C2 55 06           2018 	jp	nz,00130$
                           2019 ;	enemies.c 362
                           2020 ; genPlus
                           2021 ; AOP_STK for _UpdateEnemy_ptrEnemy_1_1
                           2022 ; genPlusIncr
                           2023 ;	genPlusIncr failed
   05E7 23                 2024 	inc	hl
   05E8 23                 2025 	inc	hl
   05E9 5E                 2026 	ld	e,(hl)
   05EA 23                 2027 	inc	hl
   05EB 56                 2028 	ld	d,(hl)
   05EC 21 08 00           2029 	ld	hl,#0x0008
   05EF 19                 2030 	add	hl,de
   05F0 5D                 2031 	ld	e,l
   05F1 54                 2032 	ld	d,h
                           2033 ; genPointerGet
                           2034 ; AOP_STK for _UpdateEnemy_sloc4_1_0
   05F2 1A                 2035 	ld	a,(de)
   05F3 F8 00              2036 	lda	hl,0(sp)
   05F5 77                 2037 	ld	(hl),a
                           2038 ; genAssign
                           2039 ; AOP_STK for 
                           2040 ; AOP_STK for _UpdateEnemy_sloc3_1_0
   05F6 F8 12              2041 	lda	hl,18(sp)
   05F8 2A                 2042 	ld	a,(hl+)
   05F9 5E                 2043 	ld	e,(hl)
   05FA F8 02              2044 	lda	hl,2(sp)
   05FC 22                 2045 	ld	(hl+),a
   05FD 73                 2046 	ld	(hl),e
                           2047 ; genPlus
                           2048 ; AOP_STK for _UpdateEnemy_sloc3_1_0
                           2049 ; genPlusIncr
                           2050 ;	genPlusIncr failed
   05FE 2B                 2051 	dec	hl
   05FF 5E                 2052 	ld	e,(hl)
   0600 23                 2053 	inc	hl
   0601 56                 2054 	ld	d,(hl)
   0602 21 13 00           2055 	ld	hl,#0x0013
   0605 19                 2056 	add	hl,de
   0606 5D                 2057 	ld	e,l
   0607 54                 2058 	ld	d,h
                           2059 ; genPointerGet
   0608 1A                 2060 	ld	a,(de)
                           2061 ; genCmpEq
                           2062 ; AOP_STK for _UpdateEnemy_sloc4_1_0
   0609 F8 00              2063 	lda	hl,0(sp)
   060B BE                 2064 	cp	(hl) ; 5
   060C 20 02              2065 	jr	nz,00158$
   060E 18 03              2066 	jr	00159$
   0610                    2067 00158$:
   0610 C3 69 06           2068 	jp	00133$
   0613                    2069 00159$:
                           2070 ;	enemies.c 365
                           2071 ; genPointerGet
                           2072 ; AOP_STK for _UpdateEnemy_ptrEnemy_1_1
   0613 F8 09              2073 	lda	hl,9(sp)
   0615 5E                 2074 	ld	e,(hl)
   0616 23                 2075 	inc	hl
   0617 56                 2076 	ld	d,(hl)
   0618 1A                 2077 	ld	a,(de)
   0619 4F                 2078 	ld	c,a
                           2079 ; genCmpLt
   061A 79                 2080 	ld	a,c
   061B FE 3E              2081 	cp	#0x3E
   061D DA 69 06           2082 	jp	c,00133$
                           2083 ; genPointerGet
                           2084 ; AOP_STK for _UpdateEnemy_ptrEnemy_1_1
   0620 2B                 2085 	dec	hl
   0621 5E                 2086 	ld	e,(hl)
   0622 23                 2087 	inc	hl
   0623 56                 2088 	ld	d,(hl)
   0624 1A                 2089 	ld	a,(de)
   0625 4F                 2090 	ld	c,a
                           2091 ; genCmpGt
   0626 AF                 2092 	xor	a,a
   0627 3E 64              2093 	ld	a,#0x64
   0629 99                 2094 	sbc	a,c ; 2
   062A DA 69 06           2095 	jp	c,00133$
                           2096 ; genPlus
                           2097 ; AOP_STK for _UpdateEnemy_ptrEnemy_1_1
                           2098 ; genPlusIncr
   062D 2B                 2099 	dec	hl
   062E 5E                 2100 	ld	e,(hl)
   062F 23                 2101 	inc	hl
   0630 56                 2102 	ld	d,(hl)
   0631 13                 2103 	inc	de
                           2104 ; genPointerGet
   0632 1A                 2105 	ld	a,(de)
   0633 4F                 2106 	ld	c,a
                           2107 ; genCmpLt
   0634 79                 2108 	ld	a,c
   0635 FE 3C              2109 	cp	#0x3C
   0637 DA 69 06           2110 	jp	c,00133$
                           2111 ; genCmpGt
   063A AF                 2112 	xor	a,a
   063B 3E 64              2113 	ld	a,#0x64
   063D 99                 2114 	sbc	a,c ; 2
   063E DA 69 06           2115 	jp	c,00133$
                           2116 ;	enemies.c 368
                           2117 ; genIpush
                           2118 ; AOP_STK for _UpdateEnemy_sloc3_1_0
   0641 F8 02              2119 	lda	hl,2(sp)
   0643 2A                 2120 	ld	a,(hl+)
   0644 66                 2121 	ld	h,(hl)
   0645 6F                 2122 	ld	l,a
   0646 E5                 2123 	push	hl
                           2124 ; genIpush
                           2125 ; AOP_STK for _UpdateEnemy_ptrEnemy_1_1
   0647 F8 0B              2126 	lda	hl,11(sp)
   0649 2A                 2127 	ld	a,(hl+)
   064A 66                 2128 	ld	h,(hl)
   064B 6F                 2129 	ld	l,a
   064C E5                 2130 	push	hl
                           2131 ; genCall
   064D CD 96 06           2132 	call	_KillEnemy
   0650 E8 04              2133 	lda	sp,4(sp)
                           2134 ;	enemies.c 369
                           2135 ; genRet
   0652 C3 92 06           2136 	jp	00135$
                           2137 ; genLabel
   0655                    2138 00130$:
                           2139 ;	enemies.c 380
                           2140 ; genIpush
                           2141 ; AOP_STK for 
   0655 F8 12              2142 	lda	hl,18(sp)
   0657 2A                 2143 	ld	a,(hl+)
   0658 66                 2144 	ld	h,(hl)
   0659 6F                 2145 	ld	l,a
   065A E5                 2146 	push	hl
                           2147 ; genIpush
                           2148 ; AOP_STK for _UpdateEnemy_ptrEnemy_1_1
   065B F8 0B              2149 	lda	hl,11(sp)
   065D 2A                 2150 	ld	a,(hl+)
   065E 66                 2151 	ld	h,(hl)
   065F 6F                 2152 	ld	l,a
   0660 E5                 2153 	push	hl
                           2154 ; genCall
   0661 CD 96 06           2155 	call	_KillEnemy
   0664 E8 04              2156 	lda	sp,4(sp)
                           2157 ;	enemies.c 381
                           2158 ; genRet
   0666 C3 92 06           2159 	jp	00135$
                           2160 ; genLabel
   0669                    2161 00133$:
                           2162 ;	enemies.c 386
                           2163 ; genPlus
                           2164 ; AOP_STK for _UpdateEnemy_ptrEnemy_1_1
                           2165 ; genPlusIncr
   0669 F8 09              2166 	lda	hl,9(sp)
   066B 5E                 2167 	ld	e,(hl)
   066C 23                 2168 	inc	hl
   066D 56                 2169 	ld	d,(hl)
   066E 13                 2170 	inc	de
                           2171 ; genPointerGet
   066F 1A                 2172 	ld	a,(de)
   0670 4F                 2173 	ld	c,a
                           2174 ; genPointerGet
                           2175 ; AOP_STK for _UpdateEnemy_ptrEnemy_1_1
                           2176 ; AOP_STK for _UpdateEnemy_sloc4_1_0
   0671 2B                 2177 	dec	hl
   0672 5E                 2178 	ld	e,(hl)
   0673 23                 2179 	inc	hl
   0674 56                 2180 	ld	d,(hl)
   0675 1A                 2181 	ld	a,(de)
   0676 F8 00              2182 	lda	hl,0(sp)
   0678 77                 2183 	ld	(hl),a
                           2184 ; genPlus
                           2185 ; AOP_STK for _UpdateEnemy_ptrEnemy_1_1
                           2186 ; genPlusIncr
   0679 F8 09              2187 	lda	hl,9(sp)
   067B 5E                 2188 	ld	e,(hl)
   067C 23                 2189 	inc	hl
   067D 56                 2190 	ld	d,(hl)
   067E 13                 2191 	inc	de
   067F 13                 2192 	inc	de
                           2193 ; genPointerGet
   0680 1A                 2194 	ld	a,(de)
   0681 47                 2195 	ld	b,a
                           2196 ; genIpush
   0682 79                 2197 	ld	a,c
   0683 F5                 2198 	push	af
   0684 33                 2199 	inc	sp
                           2200 ; genIpush
                           2201 ; AOP_STK for _UpdateEnemy_sloc4_1_0
   0685 F8 01              2202 	lda	hl,1(sp)
   0687 7E                 2203 	ld	a,(hl)
   0688 F5                 2204 	push	af
   0689 33                 2205 	inc	sp
                           2206 ; genIpush
   068A 78                 2207 	ld	a,b
   068B F5                 2208 	push	af
   068C 33                 2209 	inc	sp
                           2210 ; genCall
   068D CD 00 00           2211 	call	_move_sprite
   0690 E8 03              2212 	lda	sp,3(sp)
                           2213 ; genLabel
   0692                    2214 00135$:
                           2215 ; genEndFunction
   0692 E8 0B              2216 	lda	sp,11(sp)
   0694 C1                 2217 	pop	bc
   0695 C9                 2218 	ret
   0696                    2219 ___UpdateEnemy_end:
                           2220 ;	enemies.c 396
                           2221 ; genLabel
                           2222 ; genFunction
                           2223 ;	---------------------------------
                           2224 ; Function KillEnemy
                           2225 ; ---------------------------------
   0696                    2226 ___KillEnemy_start:
   0696                    2227 _KillEnemy:
   0696 C5                 2228 	push	bc
   0697 E8 FC              2229 	lda	sp,-4(sp)
                           2230 ;	enemies.c 399
                           2231 ; genAssign
                           2232 ; AOP_STK for 
   0699 F8 08              2233 	lda	hl,8(sp)
   069B 4E                 2234 	ld	c,(hl)
   069C 23                 2235 	inc	hl
   069D 46                 2236 	ld	b,(hl)
                           2237 ; genPlus
                           2238 ; genPlusIncr
                           2239 ;	genPlusIncr failed
   069E 79                 2240 	ld	a,c
   069F C6 03              2241 	add	a,#0x03
   06A1 5F                 2242 	ld	e,a
   06A2 78                 2243 	ld	a,b
   06A3 CE 00              2244 	adc	a,#0x00
   06A5 57                 2245 	ld	d,a
                           2246 ; genAssign (pointer)
   06A6 3E 00              2247 	ld	a,#0x00
   06A8 12                 2248 	ld	(de),a
                           2249 ;	enemies.c 402
                           2250 ; genPlus
                           2251 ; genPlusIncr
   06A9 59                 2252 	ld	e,c
   06AA 50                 2253 	ld	d,b
   06AB 13                 2254 	inc	de
   06AC 13                 2255 	inc	de
                           2256 ; genPointerGet
   06AD 1A                 2257 	ld	a,(de)
   06AE 4F                 2258 	ld	c,a
                           2259 ; genIpush
   06AF 3E 00              2260 	ld	a,#0x00
   06B1 F5                 2261 	push	af
   06B2 33                 2262 	inc	sp
                           2263 ; genIpush
   06B3 79                 2264 	ld	a,c
   06B4 F5                 2265 	push	af
   06B5 33                 2266 	inc	sp
                           2267 ; genCall
   06B6 CD 00 00           2268 	call	_set_sprite_tile
   06B9 E8 02              2269 	lda	sp,2(sp)
                           2270 ;	enemies.c 403
                           2271 ; genIpush
   06BB 3E 00              2272 	ld	a,#0x00
   06BD F5                 2273 	push	af
   06BE 33                 2274 	inc	sp
                           2275 ; genIpush
   06BF 3E 00              2276 	ld	a,#0x00
   06C1 F5                 2277 	push	af
   06C2 33                 2278 	inc	sp
                           2279 ; genIpush
   06C3 79                 2280 	ld	a,c
   06C4 F5                 2281 	push	af
   06C5 33                 2282 	inc	sp
                           2283 ; genCall
   06C6 CD 00 00           2284 	call	_move_sprite
   06C9 E8 03              2285 	lda	sp,3(sp)
                           2286 ;	enemies.c 406
                           2287 ; genAssign
                           2288 ; AOP_STK for 
   06CB F8 0A              2289 	lda	hl,10(sp)
   06CD 4E                 2290 	ld	c,(hl)
   06CE 23                 2291 	inc	hl
   06CF 46                 2292 	ld	b,(hl)
                           2293 ; genPlus
                           2294 ; AOP_STK for _KillEnemy_sloc1_1_0
                           2295 ; genPlusIncr
                           2296 ;	genPlusIncr failed
   06D0 21 14 00           2297 	ld	hl,#0x0014
   06D3 09                 2298 	add	hl,bc
   06D4 7D                 2299 	ld	a,l
   06D5 54                 2300 	ld	d,h
   06D6 F8 00              2301 	lda	hl,0(sp)
   06D8 22                 2302 	ld	(hl+),a
   06D9 72                 2303 	ld	(hl),d
                           2304 ; genPointerGet
                           2305 ; AOP_STK for _KillEnemy_sloc1_1_0
                           2306 ; AOP_STK for _KillEnemy_sloc0_1_0
   06DA 2B                 2307 	dec	hl
   06DB 5E                 2308 	ld	e,(hl)
   06DC 23                 2309 	inc	hl
   06DD 56                 2310 	ld	d,(hl)
   06DE 1A                 2311 	ld	a,(de)
   06DF 23                 2312 	inc	hl
   06E0 77                 2313 	ld	(hl),a
   06E1 13                 2314 	inc	de
   06E2 1A                 2315 	ld	a,(de)
   06E3 23                 2316 	inc	hl
   06E4 77                 2317 	ld	(hl),a
                           2318 ; genPlus
                           2319 ; AOP_STK for _KillEnemy_sloc0_1_0
                           2320 ; genPlusIncr
   06E5 2B                 2321 	dec	hl
   06E6 4E                 2322 	ld	c,(hl)
   06E7 23                 2323 	inc	hl
   06E8 46                 2324 	ld	b,(hl)
   06E9 03                 2325 	inc	bc
                           2326 ; genAssign (pointer)
                           2327 ; AOP_STK for _KillEnemy_sloc1_1_0
   06EA F8 00              2328 	lda	hl,0(sp)
   06EC 5E                 2329 	ld	e,(hl)
   06ED 23                 2330 	inc	hl
   06EE 56                 2331 	ld	d,(hl)
   06EF 79                 2332 	ld	a,c
   06F0 12                 2333 	ld	(de),a
   06F1 13                 2334 	inc	de
   06F2 78                 2335 	ld	a,b
   06F3 12                 2336 	ld	(de),a
                           2337 ;	enemies.c 407
                           2338 ; genPlus
                           2339 ; AOP_HL for _m_nTotalKilled
                           2340 ; genPlusIncr
   06F4 21 13 01           2341 	ld	hl,#_m_nTotalKilled + 0
   06F7 34                 2342 	inc	(hl)
   06F8 20 02              2343 	jr	nz,00103$
   06FA 23                 2344 	inc	hl
   06FB 34                 2345 	inc	(hl)
   06FC                    2346 00103$:
                           2347 ;	enemies.c 410
                           2348 ; genAssign
                           2349 ; AOP_HL for _m_bPlayKillSoundEffect
   06FC 21 1C 01           2350 	ld	hl,#_m_bPlayKillSoundEffect + 0
   06FF 36 01              2351 	ld	(hl),#0x01
                           2352 ; genLabel
   0701                    2353 00101$:
                           2354 ; genEndFunction
   0701 E8 04              2355 	lda	sp,4(sp)
   0703 C1                 2356 	pop	bc
   0704 C9                 2357 	ret
   0705                    2358 ___KillEnemy_end:
                           2359 ;	enemies.c 416
                           2360 ; genLabel
                           2361 ; genFunction
                           2362 ;	---------------------------------
                           2363 ; Function IncreaseDifficulty
                           2364 ; ---------------------------------
   0705                    2365 ___IncreaseDifficulty_start:
   0705                    2366 _IncreaseDifficulty:
   0705 C5                 2367 	push	bc
                           2368 	
                           2369 ;	enemies.c 419
                           2370 ; genIfx
                           2371 ; AOP_HL for _m_bMaxSpeedReached
   0706 AF                 2372 	xor	a,a
   0707 21 16 01           2373 	ld	hl,#_m_bMaxSpeedReached + 0
   070A B6                 2374 	or	a,(hl)
   070B B7                 2375 	or	a,a
   070C C2 59 07           2376 	jp	nz,00106$
                           2377 ;	enemies.c 421
                           2378 ; genCast
                           2379 ; AOP_HL for _m_nKillsForNextSpeed
   070F 21 15 01           2380 	ld	hl,#_m_nKillsForNextSpeed + 0
   0712 4E                 2381 	ld	c,(hl)
   0713 06 00              2382 	ld	b,#0x00
                           2383 ; genCmpLt
                           2384 ; AOP_HL for _m_nTotalKilled
   0715 AF                 2385 	xor	a,a
   0716 21 13 01           2386 	ld	hl,#_m_nTotalKilled + 0
   0719 7E                 2387 	ld	a,(hl)
   071A 99                 2388 	sbc	a,c ; 2
   071B 23                 2389 	inc	hl
   071C 7E                 2390 	ld	a,(hl)
   071D 98                 2391 	sbc	a,b ; 2
   071E DA 59 07           2392 	jp	c,00106$
                           2393 ;	enemies.c 425
                           2394 ; genPlus
                           2395 ; AOP_HL for _m_nCurrentSpeed
                           2396 ; genPlusIncr
   0721 21 12 01           2397 	ld	hl,#_m_nCurrentSpeed + 0
   0724 34                 2398 	inc	(hl)
                           2399 ;	enemies.c 426
                           2400 ; genIpush
   0725 3E 03              2401 	ld	a,#0x03
   0727 F5                 2402 	push	af
   0728 33                 2403 	inc	sp
                           2404 ; genIpush
                           2405 ; AOP_HL for _m_nKillsForNextSpeed
   0729 21 15 01           2406 	ld	hl,#_m_nKillsForNextSpeed + 0
   072C 7E                 2407 	ld	a,(hl)
   072D F5                 2408 	push	af
   072E 33                 2409 	inc	sp
                           2410 ; genCall
   072F CD 00 00           2411 	call	__muluchar
   0732 4B                 2412 	ld	c,e
   0733 E8 02              2413 	lda	sp,2(sp)
                           2414 ; genRightShift
                           2415 ; shift right 	result 1, left 1
                           2416 ; Removed redundent load
   0735 CB 39              2417 	srl	c
   0737 CB 39              2418 	srl	c
                           2419 ; genCast
                           2420 ; Removed redundent load
   0739 06 00              2421 	ld	b,#0x00
                           2422 ; genPlus
                           2423 ; AOP_HL for _m_nTotalKilled
                           2424 ;	genPlusIncr failed
   073B 21 13 01           2425 	ld	hl,#_m_nTotalKilled + 0
   073E 7E                 2426 	ld	a,(hl)
   073F 81                 2427 	add	a,c
   0740 4F                 2428 	ld	c,a
   0741 23                 2429 	inc	hl
   0742 7E                 2430 	ld	a,(hl)
   0743 88                 2431 	adc	a,b
   0744 47                 2432 	ld	b,a
                           2433 ; genCast
                           2434 ; AOP_HL for _m_nKillsForNextSpeed
   0745 21 15 01           2435 	ld	hl,#_m_nKillsForNextSpeed + 0
   0748 71                 2436 	ld	(hl),c
                           2437 ;	enemies.c 429
                           2438 ; genCmpLt
                           2439 ; AOP_HL for _m_nCurrentSpeed
   0749 21 12 01           2440 	ld	hl,#_m_nCurrentSpeed + 0
   074C 7E                 2441 	ld	a,(hl)
   074D FE 0B              2442 	cp	#0x0B
   074F DA 59 07           2443 	jp	c,00106$
                           2444 ;	enemies.c 433
                           2445 ; genAssign
                           2446 ; AOP_HL for _m_nCurrentSpeed
   0752 36 0B              2447 	ld	(hl),#0x0B
                           2448 ;	enemies.c 434
                           2449 ; genAssign
                           2450 ; AOP_HL for _m_bMaxSpeedReached
   0754 21 16 01           2451 	ld	hl,#_m_bMaxSpeedReached + 0
   0757 36 01              2452 	ld	(hl),#0x01
                           2453 ; genLabel
   0759                    2454 00106$:
                           2455 ;	enemies.c 440
                           2456 ; genIfx
                           2457 ; AOP_HL for _m_bMaxSpawnRateReached
   0759 AF                 2458 	xor	a,a
   075A 21 17 01           2459 	ld	hl,#_m_bMaxSpawnRateReached + 0
   075D B6                 2460 	or	a,(hl)
   075E B7                 2461 	or	a,a
   075F C2 F5 07           2462 	jp	nz,00123$
                           2463 ; genCmpEq
                           2464 ; AOP_HL for _m_nTotalKilled
   0762 21 13 01           2465 	ld	hl,#_m_nTotalKilled + 0
   0765 2A                 2466 	ld	a,(hl+)
   0766 B6                 2467 	or	a,(hl)
                           2468 ; Rule 5
   0767 CA F5 07           2469 	jp	z,00123$
   076A                    2470 00136$:
                           2471 ; genIpush
   076A 21 0F 00           2472 	ld	hl,#0x000F
   076D E5                 2473 	push	hl
                           2474 ; genIpush
                           2475 ; AOP_HL for _m_nTotalKilled
   076E 21 13 01           2476 	ld	hl,#_m_nTotalKilled + 0
   0771 2A                 2477 	ld	a,(hl+)
   0772 66                 2478 	ld	h,(hl)
   0773 6F                 2479 	ld	l,a
   0774 E5                 2480 	push	hl
                           2481 ; genCall
   0775 CD 00 00           2482 	call	__moduint
   0778 42                 2483 	ld	b,d
   0779 4B                 2484 	ld	c,e
   077A E8 04              2485 	lda	sp,4(sp)
                           2486 ; genCmpEq
   077C 79                 2487 	ld	a,c
   077D B0                 2488 	or	a,b
   077E C2 83 07           2489 	jp	nz,00137$
   0781 18 03              2490 	jr	00138$
   0783                    2491 00137$:
   0783 C3 F5 07           2492 	jp	00123$
   0786                    2493 00138$:
                           2494 ;	enemies.c 443
                           2495 ; genCmpEq
                           2496 ; AOP_HL for _m_nTotalKilled
                           2497 ; AOP_HL for _m_nLastSpawnRateKillCount
   0786 21 18 01           2498 	ld	hl,#_m_nLastSpawnRateKillCount + 0
   0789 7E                 2499 	ld	a,(hl)
   078A 21 13 01           2500 	ld	hl,#_m_nTotalKilled + 0
   078D BE                 2501 	cp	(hl) ; 5
   078E 20 0D              2502 	jr	nz,00139$
   0790 21 19 01           2503 	ld	hl,#_m_nLastSpawnRateKillCount + 0 + 1
   0793 7E                 2504 	ld	a,(hl)
   0794 21 14 01           2505 	ld	hl,#_m_nTotalKilled + 0 + 1
   0797 BE                 2506 	cp	(hl) ; 5
   0798 20 03              2507 	jr	nz,00139$
   079A C3 F5 07           2508 	jp	00123$
   079D                    2509 00139$:
                           2510 ;	enemies.c 446
                           2511 ; genCmpLt
                           2512 ; AOP_HL for _m_nTotalKilled
   079D 21 13 01           2513 	ld	hl,#_m_nTotalKilled + 0
   07A0 5E                 2514 	ld	e,(hl)
   07A1 23                 2515 	inc	hl
   07A2 56                 2516 	ld	d,(hl)
   07A3 21 6A FF           2517 	ld	hl,#0xFF6A
   07A6 19                 2518 	add	hl,de
   07A7 DA B4 07           2519 	jp	c,00113$
                           2520 ; genMinus
                           2521 ; AOP_HL for _m_nSpawnDelay
   07AA 21 1B 01           2522 	ld	hl,#_m_nSpawnDelay + 0
   07AD 7E                 2523 	ld	a,(hl)
   07AE C6 FB              2524 	add	a,#0xFB
   07B0 77                 2525 	ld	(hl),a
                           2526 ; genGoto
   07B1 C3 DA 07           2527 	jp	00114$
                           2528 ; genLabel
   07B4                    2529 00113$:
                           2530 ;	enemies.c 447
                           2531 ; genCmpLt
                           2532 ; AOP_HL for _m_nTotalKilled
   07B4 21 13 01           2533 	ld	hl,#_m_nTotalKilled + 0
   07B7 5E                 2534 	ld	e,(hl)
   07B8 23                 2535 	inc	hl
   07B9 56                 2536 	ld	d,(hl)
   07BA 21 D4 FE           2537 	ld	hl,#0xFED4
   07BD 19                 2538 	add	hl,de
   07BE DA C9 07           2539 	jp	c,00110$
                           2540 ; genMinus
                           2541 ; AOP_HL for _m_nSpawnDelay
   07C1 21 1B 01           2542 	ld	hl,#_m_nSpawnDelay + 0
   07C4 35                 2543 	dec	(hl)
   07C5 35                 2544 	dec	(hl)
                           2545 ; genGoto
   07C6 C3 DA 07           2546 	jp	00114$
                           2547 ; genLabel
   07C9                    2548 00110$:
                           2549 ;	enemies.c 448
                           2550 ; genCmpLt
                           2551 ; AOP_HL for _m_nTotalKilled
   07C9 21 13 01           2552 	ld	hl,#_m_nTotalKilled + 0
   07CC 5E                 2553 	ld	e,(hl)
   07CD 23                 2554 	inc	hl
   07CE 56                 2555 	ld	d,(hl)
   07CF 21 E0 FC           2556 	ld	hl,#0xFCE0
   07D2 19                 2557 	add	hl,de
   07D3 DA DA 07           2558 	jp	c,00114$
                           2559 ; genMinus
                           2560 ; AOP_HL for _m_nSpawnDelay
   07D6 21 1B 01           2561 	ld	hl,#_m_nSpawnDelay + 0
   07D9 35                 2562 	dec	(hl)
                           2563 ; genLabel
   07DA                    2564 00114$:
                           2565 ;	enemies.c 451
                           2566 ; genCmpGt
                           2567 ; AOP_HL for _m_nSpawnDelay
   07DA AF                 2568 	xor	a,a
   07DB 3E 0A              2569 	ld	a,#0x0A
   07DD 21 1B 01           2570 	ld	hl,#_m_nSpawnDelay + 0
   07E0 9E                 2571 	sbc	a,(hl) ; 2
   07E1 DA EB 07           2572 	jp	c,00116$
                           2573 ;	enemies.c 453
                           2574 ; genAssign
                           2575 ; AOP_HL for _m_nSpawnDelay
   07E4 36 08              2576 	ld	(hl),#0x08
                           2577 ;	enemies.c 454
                           2578 ; genAssign
                           2579 ; AOP_HL for _m_bMaxSpawnRateReached
   07E6 21 17 01           2580 	ld	hl,#_m_bMaxSpawnRateReached + 0
   07E9 36 01              2581 	ld	(hl),#0x01
                           2582 ; genLabel
   07EB                    2583 00116$:
                           2584 ;	enemies.c 458
                           2585 ; genAssign
                           2586 ; AOP_HL for _m_nTotalKilled
                           2587 ; AOP_HL for _m_nLastSpawnRateKillCount
   07EB 21 13 01           2588 	ld	hl,#_m_nTotalKilled + 0
   07EE 2A                 2589 	ld	a,(hl+)
   07EF 5E                 2590 	ld	e,(hl)
   07F0 21 18 01           2591 	ld	hl,#_m_nLastSpawnRateKillCount + 0
   07F3 22                 2592 	ld	(hl+),a
   07F4 73                 2593 	ld	(hl),e
                           2594 ; genLabel
   07F5                    2595 00123$:
                           2596 ; genEndFunction
                           2597 	
   07F5 C1                 2598 	pop	bc
   07F6 C9                 2599 	ret
   07F7                    2600 ___IncreaseDifficulty_end:
                           2601 ;	enemies.c 472
                           2602 ; genLabel
                           2603 ; genFunction
                           2604 ;	---------------------------------
                           2605 ; Function IsEnemyAlive
                           2606 ; ---------------------------------
   07F7                    2607 ___IsEnemyAlive_start:
   07F7                    2608 _IsEnemyAlive:
   07F7 C5                 2609 	push	bc
                           2610 	
                           2611 ;	enemies.c 474
                           2612 ; genIpush
   07F8 3E 0D              2613 	ld	a,#0x0D
   07FA F5                 2614 	push	af
   07FB 33                 2615 	inc	sp
                           2616 ; genIpush
                           2617 ; AOP_STK for 
   07FC F8 05              2618 	lda	hl,5(sp)
   07FE 7E                 2619 	ld	a,(hl)
   07FF F5                 2620 	push	af
   0800 33                 2621 	inc	sp
                           2622 ; genCall
   0801 CD 00 00           2623 	call	__muluchar
   0804 4B                 2624 	ld	c,e
   0805 E8 02              2625 	lda	sp,2(sp)
                           2626 ; genPlus
                           2627 ;	genPlusIncr failed
   0807 3E 00              2628 	ld	a,#<_m_aoEnemies
   0809 81                 2629 	add	a,c
   080A 4F                 2630 	ld	c,a
   080B 3E 00              2631 	ld	a,#>_m_aoEnemies
   080D CE 00              2632 	adc	a,#0x00
   080F 47                 2633 	ld	b,a
                           2634 ; genPlus
                           2635 ; genPlusIncr
                           2636 ;	genPlusIncr failed
   0810 79                 2637 	ld	a,c
   0811 C6 03              2638 	add	a,#0x03
   0813 5F                 2639 	ld	e,a
   0814 78                 2640 	ld	a,b
   0815 CE 00              2641 	adc	a,#0x00
   0817 57                 2642 	ld	d,a
                           2643 ; genPointerGet
   0818 1A                 2644 	ld	a,(de)
   0819 4F                 2645 	ld	c,a
                           2646 ; genRet
   081A 59                 2647 	ld	e,c
                           2648 ; genLabel
   081B                    2649 00101$:
                           2650 ; genEndFunction
                           2651 	
   081B C1                 2652 	pop	bc
   081C C9                 2653 	ret
   081D                    2654 ___IsEnemyAlive_end:
                           2655 ;	enemies.c 480
                           2656 ; genLabel
                           2657 ; genFunction
                           2658 ;	---------------------------------
                           2659 ; Function SpawnNext
                           2660 ; ---------------------------------
   081D                    2661 ___SpawnNext_start:
   081D                    2662 _SpawnNext:
   081D C5                 2663 	push	bc
   081E E8 FE              2664 	lda	sp,-2(sp)
                           2665 ;	enemies.c 491
                           2666 ; genAssign
                           2667 ; AOP_STK for _SpawnNext_nFreeSlot_1_1
   0820 F8 00              2668 	lda	hl,0(sp)
   0822 36 10              2669 	ld	(hl),#0x10
                           2670 ;	enemies.c 495
                           2671 ; genAssign
                           2672 ; AOP_STK for _SpawnNext_i_1_1
   0824 23                 2673 	inc	hl
   0825 36 00              2674 	ld	(hl),#0x00
                           2675 ; genLabel
   0827                    2676 00103$:
                           2677 ; genCmpLt
                           2678 ; AOP_STK for _SpawnNext_i_1_1
   0827 F8 01              2679 	lda	hl,1(sp)
   0829 7E                 2680 	ld	a,(hl)
   082A FE 10              2681 	cp	#0x10
   082C D2 62 08           2682 	jp	nc,00106$
                           2683 ;	enemies.c 500
                           2684 ; genIpush
   082F 3E 0D              2685 	ld	a,#0x0D
   0831 F5                 2686 	push	af
   0832 33                 2687 	inc	sp
                           2688 ; genIpush
                           2689 ; AOP_STK for _SpawnNext_i_1_1
   0833 7E                 2690 	ld	a,(hl)
   0834 F5                 2691 	push	af
   0835 33                 2692 	inc	sp
                           2693 ; genCall
   0836 CD 00 00           2694 	call	__muluchar
   0839 4B                 2695 	ld	c,e
   083A E8 02              2696 	lda	sp,2(sp)
                           2697 ; genPlus
                           2698 ;	genPlusIncr failed
   083C 3E 00              2699 	ld	a,#<_m_aoEnemies
   083E 81                 2700 	add	a,c
   083F 4F                 2701 	ld	c,a
   0840 3E 00              2702 	ld	a,#>_m_aoEnemies
   0842 CE 00              2703 	adc	a,#0x00
   0844 47                 2704 	ld	b,a
                           2705 ; genPlus
                           2706 ; genPlusIncr
                           2707 ;	genPlusIncr failed
   0845 79                 2708 	ld	a,c
   0846 C6 03              2709 	add	a,#0x03
   0848 5F                 2710 	ld	e,a
   0849 78                 2711 	ld	a,b
   084A CE 00              2712 	adc	a,#0x00
   084C 57                 2713 	ld	d,a
                           2714 ; genPointerGet
   084D 1A                 2715 	ld	a,(de)
   084E 4F                 2716 	ld	c,a
                           2717 ; genIfx
                           2718 ; Removed redundent or a,a
   084F AF                 2719 	xor	a,a
   0850 B1                 2720 	or	a,c
   0851 C2 5C 08           2721 	jp	nz,00105$
                           2722 ;	enemies.c 502
                           2723 ; genAssign
                           2724 ; AOP_STK for _SpawnNext_i_1_1
                           2725 ; AOP_STK for _SpawnNext_nFreeSlot_1_1
   0854 F8 01              2726 	lda	hl,1(sp)
   0856 7E                 2727 	ld	a,(hl)
   0857 2B                 2728 	dec	hl
   0858 77                 2729 	ld	(hl),a
                           2730 ;	enemies.c 503
                           2731 ; genGoto
   0859 C3 62 08           2732 	jp	00106$
                           2733 ; genLabel
   085C                    2734 00105$:
                           2735 ;	enemies.c 495
                           2736 ; genPlus
                           2737 ; AOP_STK for _SpawnNext_i_1_1
                           2738 ; genPlusIncr
   085C F8 01              2739 	lda	hl,1(sp)
   085E 34                 2740 	inc	(hl)
                           2741 ; genGoto
   085F C3 27 08           2742 	jp	00103$
                           2743 ; genLabel
   0862                    2744 00106$:
                           2745 ;	enemies.c 509
                           2746 ; genCmpEq
                           2747 ; AOP_STK for _SpawnNext_nFreeSlot_1_1
   0862 F8 00              2748 	lda	hl,0(sp)
   0864 7E                 2749 	ld	a,(hl) ; 2
   0865 FE 10              2750 	cp	a,#0x10
   0867 C2 6C 08           2751 	jp	nz,00115$
   086A 18 03              2752 	jr	00116$
   086C                    2753 00115$:
   086C C3 72 08           2754 	jp	00108$
   086F                    2755 00116$:
                           2756 ; genRet
   086F C3 83 08           2757 	jp	00109$
                           2758 ; genLabel
   0872                    2759 00108$:
                           2760 ;	enemies.c 512
                           2761 ; genCall
   0872 CD 58 01           2762 	call	_GetNextSpawnIndex
   0875 4B                 2763 	ld	c,e
                           2764 ;	enemies.c 515
                           2765 ; genIpush
   0876 79                 2766 	ld	a,c
   0877 F5                 2767 	push	af
   0878 33                 2768 	inc	sp
                           2769 ; genIpush
                           2770 ; AOP_STK for _SpawnNext_nFreeSlot_1_1
   0879 F8 01              2771 	lda	hl,1(sp)
   087B 7E                 2772 	ld	a,(hl)
   087C F5                 2773 	push	af
   087D 33                 2774 	inc	sp
                           2775 ; genCall
   087E CD E5 01           2776 	call	_SpawnEnemy
   0881 E8 02              2777 	lda	sp,2(sp)
                           2778 ; genLabel
   0883                    2779 00109$:
                           2780 ; genEndFunction
   0883 E8 02              2781 	lda	sp,2(sp)
   0885 C1                 2782 	pop	bc
   0886 C9                 2783 	ret
   0887                    2784 ___SpawnNext_end:
                           2785 ;	enemies.c 521
                           2786 ; genLabel
                           2787 ; genFunction
                           2788 ;	---------------------------------
                           2789 ; Function TickSpawnTimer
                           2790 ; ---------------------------------
   0887                    2791 ___TickSpawnTimer_start:
   0887                    2792 _TickSpawnTimer:
                           2793 	
                           2794 ;	enemies.c 523
                           2795 ; genCmpGt
                           2796 ; AOP_HL for _m_nSpawnTimer
   0887 AF                 2797 	xor	a,a
   0888 3E 00              2798 	ld	a,#0x00
   088A 21 1A 01           2799 	ld	hl,#_m_nSpawnTimer + 0
   088D 9E                 2800 	sbc	a,(hl) ; 2
   088E D2 92 08           2801 	jp	nc,00103$
                           2802 ;	enemies.c 525
                           2803 ; genMinus
                           2804 ; AOP_HL for _m_nSpawnTimer
   0891 35                 2805 	dec	(hl)
                           2806 ; genLabel
   0892                    2807 00103$:
                           2808 ; genEndFunction
                           2809 	
   0892 C9                 2810 	ret
   0893                    2811 ___TickSpawnTimer_end:
                           2812 	.area _CODE
ASxxxx Assembler V01.75  (GameBoy Z80-like CPU), page 1.

Symbol Table

    _BCPD_REG                          **** GX
    _BCPS_REG                          **** GX
    _BGP_REG                           **** GX
    _DIV_REG                           **** GX
    _DMA_REG                           **** GX
  0 _GetNextSpawnIndex                 0158 GR
  0 _GetSprite                         038E GR
    _HDMA1_REG                         **** GX
    _HDMA2_REG                         **** GX
    _HDMA3_REG                         **** GX
    _HDMA4_REG                         **** GX
    _HDMA5_REG                         **** GX
    _IE_REG                            **** GX
    _IF_REG                            **** GX
  0 _IncreaseDifficulty                0705 GR
  0 _InitEnemiesSpawnQueue             0000 GR
  1 _InitEnemiesSpawnQueue_sloc3_1_0   011D R
  1 _InitEnemiesSpawnQueue_sloc4_1_0   011F R
  1 _InitEnemiesSpawnQueue_sloc5_1_0   0120 R
  0 _InitEnemy                         017F GR
  0 _IsEnemyAlive                      07F7 GR
    _KEY1_REG                          **** GX
  0 _KillEnemy                         0696 GR
    _LCDC_REG                          **** GX
    _LYC_REG                           **** GX
    _LY_REG                            **** GX
    _NR10_REG                          **** GX
    _NR11_REG                          **** GX
    _NR12_REG                          **** GX
    _NR13_REG                          **** GX
    _NR14_REG                          **** GX
    _NR21_REG                          **** GX
    _NR22_REG                          **** GX
    _NR23_REG                          **** GX
    _NR24_REG                          **** GX
    _NR30_REG                          **** GX
    _NR31_REG                          **** GX
    _NR32_REG                          **** GX
    _NR33_REG                          **** GX
    _NR34_REG                          **** GX
    _NR41_REG                          **** GX
    _NR42_REG                          **** GX
    _NR43_REG                          **** GX
    _NR44_REG                          **** GX
    _NR50_REG                          **** GX
    _NR51_REG                          **** GX
    _NR52_REG                          **** GX
    _OBP0_REG                          **** GX
    _OBP1_REG                          **** GX
    _OCPD_REG                          **** GX
    _OCPS_REG                          **** GX
    _P1_REG                            **** GX
    _RP_REG                            **** GX
    _SB_REG                            **** GX
    _SCX_REG                           **** GX
    _SCY_REG                           **** GX
    _SC_REG                            **** GX
    _STAT_REG                          **** GX
    _SVBK_REG                          **** GX
  0 _SpawnEnemy                        01E5 GR
  1 _SpawnEnemy_sloc0_1_0              0122 R
  1 _SpawnEnemy_sloc1_1_0              0123 R
  0 _SpawnNext                         081D GR
    _TAC_REG                           **** GX
    _TIMA_REG                          **** GX
    _TMA_REG                           **** GX
  0 _TickSpawnTimer                    0887 GR
  0 _UpdateEnemy                       03D8 GR
    _VBK_REG                           **** GX
    _WX_REG                            **** GX
    _WY_REG                            **** GX
  0 ___GetNextSpawnIndex_end           017F R
  0 ___GetNextSpawnIndex_start         0158 R
  0 ___GetSprite_end                   03D8 R
  0 ___GetSprite_start                 038E R
  0 ___IncreaseDifficulty_end          07F7 R
  0 ___IncreaseDifficulty_start        0705 R
  0 ___InitEnemiesSpawnQueue_end       0138 R
  0 ___InitEnemiesSpawnQueue_start     0000 R
  0 ___InitEnemy_end                   01E5 R
  0 ___InitEnemy_start                 017F R
  0 ___IsEnemyAlive_end                081D R
  0 ___IsEnemyAlive_start              07F7 R
  0 ___KillEnemy_end                   0705 R
  0 ___KillEnemy_start                 0696 R
  0 ___SpawnEnemy_end                  038E R
  0 ___SpawnEnemy_start                01E5 R
  0 ___SpawnNext_end                   0887 R
  0 ___SpawnNext_start                 081D R
  0 ___TickSpawnTimer_end              0893 R
  0 ___TickSpawnTimer_start            0887 R
  0 ___UpdateEnemy_end                 0696 R
  0 ___UpdateEnemy_start               03D8 R
    __cpu                              **** GX
    __io_in                            **** GX
    __io_out                           **** GX
    __io_status                        **** GX
    __modschar                         **** GX
    __moduchar                         **** GX
    __moduint                          **** GX
    __muluchar                         **** GX
  0 _m_anMovementDirX                  0148 R
  0 _m_anMovementDirY                  0150 R
  0 _m_anSpawnPositions                0138 R
  1 _m_anSpawnQueue                    00D1 R
  1 _m_aoEnemies                       0000 GR
  1 _m_bMaxSpawnRateReached            0117 R
  1 _m_bMaxSpeedReached                0116 R
  1 _m_bPlayKillSoundEffect            011C GR
  1 _m_nCurrentSpeed                   0112 R
  1 _m_nKillsForNextSpeed              0115 R
  1 _m_nLastSpawnRateKillCount         0118 R
  1 _m_nNextSpriteID                   00D0 R
  1 _m_nSpawnDelay                     011B GR
  1 _m_nSpawnQueuePos                  0111 R
  1 _m_nSpawnTimer                     011A GR
  1 _m_nTotalKilled                    0113 R
    _move_sprite                       **** GX
    _rand                              **** GX
    _set_sprite_tile                   **** GX
    _sys_time                          **** GX

ASxxxx Assembler V01.75  (GameBoy Z80-like CPU), page 2.

Area Table

   0 _CODE                              size  893   flags 0
   1 _DATA                              size  125   flags 0
   2 _OVERLAY                           size    0   flags 0
   3 _ISEG                              size    0   flags 0
   4 _BSEG                              size    0   flags 0
   5 _XSEG                              size    0   flags 0
   6 _GSINIT                            size   3D   flags 0
   7 _GSFINAL                           size    0   flags 0
   8 _HOME                              size    0   flags 0
